ARM GAS  C:\Users\TeTe\AppData\Local\Temp\ccx2v98J.s 			page 1


   1              		.cpu cortex-m3
   2              		.arch armv7-m
   3              		.fpu softvfp
   4              		.eabi_attribute 20, 1
   5              		.eabi_attribute 21, 1
   6              		.eabi_attribute 23, 3
   7              		.eabi_attribute 24, 1
   8              		.eabi_attribute 25, 1
   9              		.eabi_attribute 26, 1
  10              		.eabi_attribute 30, 1
  11              		.eabi_attribute 34, 1
  12              		.eabi_attribute 18, 4
  13              		.file	"liquidcrystal_i2c.c"
  14              		.text
  15              	.Ltext0:
  16              		.cfi_sections	.debug_frame
  17              		.file 1 "Core/Src/liquidcrystal_i2c.c"
  18              		.section	.text.DelayInit,"ax",%progbits
  19              		.align	1
  20              		.syntax unified
  21              		.thumb
  22              		.thumb_func
  24              	DelayInit:
  25              	.LFB94:
   1:Core/Src/liquidcrystal_i2c.c **** #include "liquidcrystal_i2c.h"
   2:Core/Src/liquidcrystal_i2c.c **** 
   3:Core/Src/liquidcrystal_i2c.c **** extern I2C_HandleTypeDef hi2c1;
   4:Core/Src/liquidcrystal_i2c.c **** 
   5:Core/Src/liquidcrystal_i2c.c **** uint8_t dpFunction;
   6:Core/Src/liquidcrystal_i2c.c **** uint8_t dpControl;
   7:Core/Src/liquidcrystal_i2c.c **** uint8_t dpMode;
   8:Core/Src/liquidcrystal_i2c.c **** uint8_t dpRows;
   9:Core/Src/liquidcrystal_i2c.c **** uint8_t dpBacklight;
  10:Core/Src/liquidcrystal_i2c.c **** 
  11:Core/Src/liquidcrystal_i2c.c **** static void SendCommand(uint8_t);
  12:Core/Src/liquidcrystal_i2c.c **** static void SendChar(uint8_t);
  13:Core/Src/liquidcrystal_i2c.c **** static void Send(uint8_t, uint8_t);
  14:Core/Src/liquidcrystal_i2c.c **** static void Write4Bits(uint8_t);
  15:Core/Src/liquidcrystal_i2c.c **** static void ExpanderWrite(uint8_t);
  16:Core/Src/liquidcrystal_i2c.c **** static void PulseEnable(uint8_t);
  17:Core/Src/liquidcrystal_i2c.c **** static void DelayInit(void);
  18:Core/Src/liquidcrystal_i2c.c **** static void DelayUS(uint32_t);
  19:Core/Src/liquidcrystal_i2c.c **** 
  20:Core/Src/liquidcrystal_i2c.c **** uint8_t special1[8] = {
  21:Core/Src/liquidcrystal_i2c.c ****         0b00000,
  22:Core/Src/liquidcrystal_i2c.c ****         0b11001,
  23:Core/Src/liquidcrystal_i2c.c ****         0b11011,
  24:Core/Src/liquidcrystal_i2c.c ****         0b00110,
  25:Core/Src/liquidcrystal_i2c.c ****         0b01100,
  26:Core/Src/liquidcrystal_i2c.c ****         0b11011,
  27:Core/Src/liquidcrystal_i2c.c ****         0b10011,
  28:Core/Src/liquidcrystal_i2c.c ****         0b00000
  29:Core/Src/liquidcrystal_i2c.c **** };
  30:Core/Src/liquidcrystal_i2c.c **** 
  31:Core/Src/liquidcrystal_i2c.c **** uint8_t special2[8] = {
  32:Core/Src/liquidcrystal_i2c.c ****         0b11000,
  33:Core/Src/liquidcrystal_i2c.c ****         0b11000,
ARM GAS  C:\Users\TeTe\AppData\Local\Temp\ccx2v98J.s 			page 2


  34:Core/Src/liquidcrystal_i2c.c ****         0b00110,
  35:Core/Src/liquidcrystal_i2c.c ****         0b01001,
  36:Core/Src/liquidcrystal_i2c.c ****         0b01000,
  37:Core/Src/liquidcrystal_i2c.c ****         0b01001,
  38:Core/Src/liquidcrystal_i2c.c ****         0b00110,
  39:Core/Src/liquidcrystal_i2c.c ****         0b00000
  40:Core/Src/liquidcrystal_i2c.c **** };
  41:Core/Src/liquidcrystal_i2c.c **** 
  42:Core/Src/liquidcrystal_i2c.c **** void HD44780_Init(uint8_t rows)
  43:Core/Src/liquidcrystal_i2c.c **** {
  44:Core/Src/liquidcrystal_i2c.c ****   dpRows = rows;
  45:Core/Src/liquidcrystal_i2c.c **** 
  46:Core/Src/liquidcrystal_i2c.c ****   dpBacklight = LCD_BACKLIGHT;
  47:Core/Src/liquidcrystal_i2c.c **** 
  48:Core/Src/liquidcrystal_i2c.c ****   dpFunction = LCD_4BITMODE | LCD_1LINE | LCD_5x8DOTS;
  49:Core/Src/liquidcrystal_i2c.c **** 
  50:Core/Src/liquidcrystal_i2c.c ****   if (dpRows > 1)
  51:Core/Src/liquidcrystal_i2c.c ****   {
  52:Core/Src/liquidcrystal_i2c.c ****     dpFunction |= LCD_2LINE;
  53:Core/Src/liquidcrystal_i2c.c ****   }
  54:Core/Src/liquidcrystal_i2c.c ****   else
  55:Core/Src/liquidcrystal_i2c.c ****   {
  56:Core/Src/liquidcrystal_i2c.c ****     dpFunction |= LCD_5x10DOTS;
  57:Core/Src/liquidcrystal_i2c.c ****   }
  58:Core/Src/liquidcrystal_i2c.c **** 
  59:Core/Src/liquidcrystal_i2c.c ****   /* Wait for initialization */
  60:Core/Src/liquidcrystal_i2c.c ****   DelayInit();
  61:Core/Src/liquidcrystal_i2c.c ****   HAL_Delay(50);
  62:Core/Src/liquidcrystal_i2c.c **** 
  63:Core/Src/liquidcrystal_i2c.c ****   ExpanderWrite(dpBacklight);
  64:Core/Src/liquidcrystal_i2c.c ****   HAL_Delay(1000);
  65:Core/Src/liquidcrystal_i2c.c **** 
  66:Core/Src/liquidcrystal_i2c.c ****   /* 4bit Mode */
  67:Core/Src/liquidcrystal_i2c.c ****   Write4Bits(0x03 << 4);
  68:Core/Src/liquidcrystal_i2c.c ****   DelayUS(4500);
  69:Core/Src/liquidcrystal_i2c.c **** 
  70:Core/Src/liquidcrystal_i2c.c ****   Write4Bits(0x03 << 4);
  71:Core/Src/liquidcrystal_i2c.c ****   DelayUS(4500);
  72:Core/Src/liquidcrystal_i2c.c **** 
  73:Core/Src/liquidcrystal_i2c.c ****   Write4Bits(0x03 << 4);
  74:Core/Src/liquidcrystal_i2c.c ****   DelayUS(4500);
  75:Core/Src/liquidcrystal_i2c.c **** 
  76:Core/Src/liquidcrystal_i2c.c ****   Write4Bits(0x02 << 4);
  77:Core/Src/liquidcrystal_i2c.c ****   DelayUS(100);
  78:Core/Src/liquidcrystal_i2c.c **** 
  79:Core/Src/liquidcrystal_i2c.c ****   /* Display Control */
  80:Core/Src/liquidcrystal_i2c.c ****   SendCommand(LCD_FUNCTIONSET | dpFunction);
  81:Core/Src/liquidcrystal_i2c.c **** 
  82:Core/Src/liquidcrystal_i2c.c ****   dpControl = LCD_DISPLAYON | LCD_CURSOROFF | LCD_BLINKOFF;
  83:Core/Src/liquidcrystal_i2c.c ****   HD44780_Display();
  84:Core/Src/liquidcrystal_i2c.c ****   HD44780_Clear();
  85:Core/Src/liquidcrystal_i2c.c **** 
  86:Core/Src/liquidcrystal_i2c.c ****   /* Display Mode */
  87:Core/Src/liquidcrystal_i2c.c ****   dpMode = LCD_ENTRYLEFT | LCD_ENTRYSHIFTDECREMENT;
  88:Core/Src/liquidcrystal_i2c.c ****   SendCommand(LCD_ENTRYMODESET | dpMode);
  89:Core/Src/liquidcrystal_i2c.c ****   DelayUS(4500);
  90:Core/Src/liquidcrystal_i2c.c **** 
ARM GAS  C:\Users\TeTe\AppData\Local\Temp\ccx2v98J.s 			page 3


  91:Core/Src/liquidcrystal_i2c.c ****   HD44780_CreateSpecialChar(0, special1);
  92:Core/Src/liquidcrystal_i2c.c ****   HD44780_CreateSpecialChar(1, special2);
  93:Core/Src/liquidcrystal_i2c.c **** 
  94:Core/Src/liquidcrystal_i2c.c ****   HD44780_Home();
  95:Core/Src/liquidcrystal_i2c.c **** }
  96:Core/Src/liquidcrystal_i2c.c **** 
  97:Core/Src/liquidcrystal_i2c.c **** void HD44780_Clear()
  98:Core/Src/liquidcrystal_i2c.c **** {
  99:Core/Src/liquidcrystal_i2c.c ****   SendCommand(LCD_CLEARDISPLAY);
 100:Core/Src/liquidcrystal_i2c.c ****   DelayUS(2000);
 101:Core/Src/liquidcrystal_i2c.c **** }
 102:Core/Src/liquidcrystal_i2c.c **** 
 103:Core/Src/liquidcrystal_i2c.c **** void HD44780_Home()
 104:Core/Src/liquidcrystal_i2c.c **** {
 105:Core/Src/liquidcrystal_i2c.c ****   SendCommand(LCD_RETURNHOME);
 106:Core/Src/liquidcrystal_i2c.c ****   DelayUS(2000);
 107:Core/Src/liquidcrystal_i2c.c **** }
 108:Core/Src/liquidcrystal_i2c.c **** 
 109:Core/Src/liquidcrystal_i2c.c **** void HD44780_SetCursor(uint8_t col, uint8_t row)
 110:Core/Src/liquidcrystal_i2c.c **** {
 111:Core/Src/liquidcrystal_i2c.c ****   int row_offsets[] = { 0x00, 0x40, 0x14, 0x54 };
 112:Core/Src/liquidcrystal_i2c.c ****   if (row >= dpRows)
 113:Core/Src/liquidcrystal_i2c.c ****   {
 114:Core/Src/liquidcrystal_i2c.c ****     row = dpRows-1;
 115:Core/Src/liquidcrystal_i2c.c ****   }
 116:Core/Src/liquidcrystal_i2c.c ****   SendCommand(LCD_SETDDRAMADDR | (col + row_offsets[row]));
 117:Core/Src/liquidcrystal_i2c.c **** }
 118:Core/Src/liquidcrystal_i2c.c **** 
 119:Core/Src/liquidcrystal_i2c.c **** void HD44780_NoDisplay()
 120:Core/Src/liquidcrystal_i2c.c **** {
 121:Core/Src/liquidcrystal_i2c.c ****   dpControl &= ~LCD_DISPLAYON;
 122:Core/Src/liquidcrystal_i2c.c ****   SendCommand(LCD_DISPLAYCONTROL | dpControl);
 123:Core/Src/liquidcrystal_i2c.c **** }
 124:Core/Src/liquidcrystal_i2c.c **** 
 125:Core/Src/liquidcrystal_i2c.c **** void HD44780_Display()
 126:Core/Src/liquidcrystal_i2c.c **** {
 127:Core/Src/liquidcrystal_i2c.c ****   dpControl |= LCD_DISPLAYON;
 128:Core/Src/liquidcrystal_i2c.c ****   SendCommand(LCD_DISPLAYCONTROL | dpControl);
 129:Core/Src/liquidcrystal_i2c.c **** }
 130:Core/Src/liquidcrystal_i2c.c **** 
 131:Core/Src/liquidcrystal_i2c.c **** void HD44780_NoCursor()
 132:Core/Src/liquidcrystal_i2c.c **** {
 133:Core/Src/liquidcrystal_i2c.c ****   dpControl &= ~LCD_CURSORON;
 134:Core/Src/liquidcrystal_i2c.c ****   SendCommand(LCD_DISPLAYCONTROL | dpControl);
 135:Core/Src/liquidcrystal_i2c.c **** }
 136:Core/Src/liquidcrystal_i2c.c **** 
 137:Core/Src/liquidcrystal_i2c.c **** void HD44780_Cursor()
 138:Core/Src/liquidcrystal_i2c.c **** {
 139:Core/Src/liquidcrystal_i2c.c ****   dpControl |= LCD_CURSORON;
 140:Core/Src/liquidcrystal_i2c.c ****   SendCommand(LCD_DISPLAYCONTROL | dpControl);
 141:Core/Src/liquidcrystal_i2c.c **** }
 142:Core/Src/liquidcrystal_i2c.c **** 
 143:Core/Src/liquidcrystal_i2c.c **** void HD44780_NoBlink()
 144:Core/Src/liquidcrystal_i2c.c **** {
 145:Core/Src/liquidcrystal_i2c.c ****   dpControl &= ~LCD_BLINKON;
 146:Core/Src/liquidcrystal_i2c.c ****   SendCommand(LCD_DISPLAYCONTROL | dpControl);
 147:Core/Src/liquidcrystal_i2c.c **** }
ARM GAS  C:\Users\TeTe\AppData\Local\Temp\ccx2v98J.s 			page 4


 148:Core/Src/liquidcrystal_i2c.c **** 
 149:Core/Src/liquidcrystal_i2c.c **** void HD44780_Blink()
 150:Core/Src/liquidcrystal_i2c.c **** {
 151:Core/Src/liquidcrystal_i2c.c ****   dpControl |= LCD_BLINKON;
 152:Core/Src/liquidcrystal_i2c.c ****   SendCommand(LCD_DISPLAYCONTROL | dpControl);
 153:Core/Src/liquidcrystal_i2c.c **** }
 154:Core/Src/liquidcrystal_i2c.c **** 
 155:Core/Src/liquidcrystal_i2c.c **** void HD44780_ScrollDisplayLeft(void)
 156:Core/Src/liquidcrystal_i2c.c **** {
 157:Core/Src/liquidcrystal_i2c.c ****   SendCommand(LCD_CURSORSHIFT | LCD_DISPLAYMOVE | LCD_MOVELEFT);
 158:Core/Src/liquidcrystal_i2c.c **** }
 159:Core/Src/liquidcrystal_i2c.c **** 
 160:Core/Src/liquidcrystal_i2c.c **** void HD44780_ScrollDisplayRight(void)
 161:Core/Src/liquidcrystal_i2c.c **** {
 162:Core/Src/liquidcrystal_i2c.c ****   SendCommand(LCD_CURSORSHIFT | LCD_DISPLAYMOVE | LCD_MOVERIGHT);
 163:Core/Src/liquidcrystal_i2c.c **** }
 164:Core/Src/liquidcrystal_i2c.c **** 
 165:Core/Src/liquidcrystal_i2c.c **** void HD44780_LeftToRight(void)
 166:Core/Src/liquidcrystal_i2c.c **** {
 167:Core/Src/liquidcrystal_i2c.c ****   dpMode |= LCD_ENTRYLEFT;
 168:Core/Src/liquidcrystal_i2c.c ****   SendCommand(LCD_ENTRYMODESET | dpMode);
 169:Core/Src/liquidcrystal_i2c.c **** }
 170:Core/Src/liquidcrystal_i2c.c **** 
 171:Core/Src/liquidcrystal_i2c.c **** void HD44780_RightToLeft(void)
 172:Core/Src/liquidcrystal_i2c.c **** {
 173:Core/Src/liquidcrystal_i2c.c ****   dpMode &= ~LCD_ENTRYLEFT;
 174:Core/Src/liquidcrystal_i2c.c ****   SendCommand(LCD_ENTRYMODESET | dpMode);
 175:Core/Src/liquidcrystal_i2c.c **** }
 176:Core/Src/liquidcrystal_i2c.c **** 
 177:Core/Src/liquidcrystal_i2c.c **** void HD44780_AutoScroll(void)
 178:Core/Src/liquidcrystal_i2c.c **** {
 179:Core/Src/liquidcrystal_i2c.c ****   dpMode |= LCD_ENTRYSHIFTINCREMENT;
 180:Core/Src/liquidcrystal_i2c.c ****   SendCommand(LCD_ENTRYMODESET | dpMode);
 181:Core/Src/liquidcrystal_i2c.c **** }
 182:Core/Src/liquidcrystal_i2c.c **** 
 183:Core/Src/liquidcrystal_i2c.c **** void HD44780_NoAutoScroll(void)
 184:Core/Src/liquidcrystal_i2c.c **** {
 185:Core/Src/liquidcrystal_i2c.c ****   dpMode &= ~LCD_ENTRYSHIFTINCREMENT;
 186:Core/Src/liquidcrystal_i2c.c ****   SendCommand(LCD_ENTRYMODESET | dpMode);
 187:Core/Src/liquidcrystal_i2c.c **** }
 188:Core/Src/liquidcrystal_i2c.c **** 
 189:Core/Src/liquidcrystal_i2c.c **** void HD44780_CreateSpecialChar(uint8_t location, uint8_t charmap[])
 190:Core/Src/liquidcrystal_i2c.c **** {
 191:Core/Src/liquidcrystal_i2c.c ****   location &= 0x7;
 192:Core/Src/liquidcrystal_i2c.c ****   SendCommand(LCD_SETCGRAMADDR | (location << 3));
 193:Core/Src/liquidcrystal_i2c.c ****   for (int i=0; i<8; i++)
 194:Core/Src/liquidcrystal_i2c.c ****   {
 195:Core/Src/liquidcrystal_i2c.c ****     SendChar(charmap[i]);
 196:Core/Src/liquidcrystal_i2c.c ****   }
 197:Core/Src/liquidcrystal_i2c.c **** }
 198:Core/Src/liquidcrystal_i2c.c **** 
 199:Core/Src/liquidcrystal_i2c.c **** void HD44780_PrintSpecialChar(uint8_t index)
 200:Core/Src/liquidcrystal_i2c.c **** {
 201:Core/Src/liquidcrystal_i2c.c ****   SendChar(index);
 202:Core/Src/liquidcrystal_i2c.c **** }
 203:Core/Src/liquidcrystal_i2c.c **** 
 204:Core/Src/liquidcrystal_i2c.c **** void HD44780_LoadCustomCharacter(uint8_t char_num, uint8_t *rows)
ARM GAS  C:\Users\TeTe\AppData\Local\Temp\ccx2v98J.s 			page 5


 205:Core/Src/liquidcrystal_i2c.c **** {
 206:Core/Src/liquidcrystal_i2c.c ****   HD44780_CreateSpecialChar(char_num, rows);
 207:Core/Src/liquidcrystal_i2c.c **** }
 208:Core/Src/liquidcrystal_i2c.c **** 
 209:Core/Src/liquidcrystal_i2c.c **** void HD44780_PrintStr(const char c[])
 210:Core/Src/liquidcrystal_i2c.c **** {
 211:Core/Src/liquidcrystal_i2c.c ****   while(*c) SendChar(*c++);
 212:Core/Src/liquidcrystal_i2c.c **** }
 213:Core/Src/liquidcrystal_i2c.c **** 
 214:Core/Src/liquidcrystal_i2c.c **** void HD44780_SetBacklight(uint8_t new_val)
 215:Core/Src/liquidcrystal_i2c.c **** {
 216:Core/Src/liquidcrystal_i2c.c ****   if(new_val) HD44780_Backlight();
 217:Core/Src/liquidcrystal_i2c.c ****   else HD44780_NoBacklight();
 218:Core/Src/liquidcrystal_i2c.c **** }
 219:Core/Src/liquidcrystal_i2c.c **** 
 220:Core/Src/liquidcrystal_i2c.c **** void HD44780_NoBacklight(void)
 221:Core/Src/liquidcrystal_i2c.c **** {
 222:Core/Src/liquidcrystal_i2c.c ****   dpBacklight=LCD_NOBACKLIGHT;
 223:Core/Src/liquidcrystal_i2c.c ****   ExpanderWrite(0);
 224:Core/Src/liquidcrystal_i2c.c **** }
 225:Core/Src/liquidcrystal_i2c.c **** 
 226:Core/Src/liquidcrystal_i2c.c **** void HD44780_Backlight(void)
 227:Core/Src/liquidcrystal_i2c.c **** {
 228:Core/Src/liquidcrystal_i2c.c ****   dpBacklight=LCD_BACKLIGHT;
 229:Core/Src/liquidcrystal_i2c.c ****   ExpanderWrite(0);
 230:Core/Src/liquidcrystal_i2c.c **** }
 231:Core/Src/liquidcrystal_i2c.c **** 
 232:Core/Src/liquidcrystal_i2c.c **** static void SendCommand(uint8_t cmd)
 233:Core/Src/liquidcrystal_i2c.c **** {
 234:Core/Src/liquidcrystal_i2c.c ****   Send(cmd, 0);
 235:Core/Src/liquidcrystal_i2c.c **** }
 236:Core/Src/liquidcrystal_i2c.c **** 
 237:Core/Src/liquidcrystal_i2c.c **** static void SendChar(uint8_t ch)
 238:Core/Src/liquidcrystal_i2c.c **** {
 239:Core/Src/liquidcrystal_i2c.c ****   Send(ch, RS);
 240:Core/Src/liquidcrystal_i2c.c **** }
 241:Core/Src/liquidcrystal_i2c.c **** 
 242:Core/Src/liquidcrystal_i2c.c **** static void Send(uint8_t value, uint8_t mode)
 243:Core/Src/liquidcrystal_i2c.c **** {
 244:Core/Src/liquidcrystal_i2c.c ****   uint8_t highnib = value & 0xF0;
 245:Core/Src/liquidcrystal_i2c.c ****   uint8_t lownib = (value<<4) & 0xF0;
 246:Core/Src/liquidcrystal_i2c.c ****   Write4Bits((highnib)|mode);
 247:Core/Src/liquidcrystal_i2c.c ****   Write4Bits((lownib)|mode);
 248:Core/Src/liquidcrystal_i2c.c **** }
 249:Core/Src/liquidcrystal_i2c.c **** 
 250:Core/Src/liquidcrystal_i2c.c **** static void Write4Bits(uint8_t value)
 251:Core/Src/liquidcrystal_i2c.c **** {
 252:Core/Src/liquidcrystal_i2c.c ****   ExpanderWrite(value);
 253:Core/Src/liquidcrystal_i2c.c ****   PulseEnable(value);
 254:Core/Src/liquidcrystal_i2c.c **** }
 255:Core/Src/liquidcrystal_i2c.c **** 
 256:Core/Src/liquidcrystal_i2c.c **** static void ExpanderWrite(uint8_t _data)
 257:Core/Src/liquidcrystal_i2c.c **** {
 258:Core/Src/liquidcrystal_i2c.c ****   uint8_t data = _data | dpBacklight;
 259:Core/Src/liquidcrystal_i2c.c ****   HAL_I2C_Master_Transmit(&hi2c1, DEVICE_ADDR, (uint8_t*)&data, 1, 10);
 260:Core/Src/liquidcrystal_i2c.c **** }
 261:Core/Src/liquidcrystal_i2c.c **** 
ARM GAS  C:\Users\TeTe\AppData\Local\Temp\ccx2v98J.s 			page 6


 262:Core/Src/liquidcrystal_i2c.c **** static void PulseEnable(uint8_t _data)
 263:Core/Src/liquidcrystal_i2c.c **** {
 264:Core/Src/liquidcrystal_i2c.c ****   ExpanderWrite(_data | ENABLE);
 265:Core/Src/liquidcrystal_i2c.c ****   DelayUS(20);
 266:Core/Src/liquidcrystal_i2c.c **** 
 267:Core/Src/liquidcrystal_i2c.c ****   ExpanderWrite(_data & ~ENABLE);
 268:Core/Src/liquidcrystal_i2c.c ****   DelayUS(20);
 269:Core/Src/liquidcrystal_i2c.c **** }
 270:Core/Src/liquidcrystal_i2c.c **** 
 271:Core/Src/liquidcrystal_i2c.c **** static void DelayInit(void)
 272:Core/Src/liquidcrystal_i2c.c **** {
  26              		.loc 1 272 1 view -0
  27              		.cfi_startproc
  28              		@ args = 0, pretend = 0, frame = 0
  29              		@ frame_needed = 0, uses_anonymous_args = 0
  30              		@ link register save eliminated.
 273:Core/Src/liquidcrystal_i2c.c ****   CoreDebug->DEMCR &= ~CoreDebug_DEMCR_TRCENA_Msk;
  31              		.loc 1 273 3 view .LVU1
  32              		.loc 1 273 12 is_stmt 0 view .LVU2
  33 0000 0E4B     		ldr	r3, .L2
  34 0002 D3F8FC20 		ldr	r2, [r3, #252]
  35              		.loc 1 273 20 view .LVU3
  36 0006 22F08072 		bic	r2, r2, #16777216
  37 000a C3F8FC20 		str	r2, [r3, #252]
 274:Core/Src/liquidcrystal_i2c.c ****   CoreDebug->DEMCR |=  CoreDebug_DEMCR_TRCENA_Msk;
  38              		.loc 1 274 3 is_stmt 1 view .LVU4
  39              		.loc 1 274 12 is_stmt 0 view .LVU5
  40 000e D3F8FC20 		ldr	r2, [r3, #252]
  41              		.loc 1 274 20 view .LVU6
  42 0012 42F08072 		orr	r2, r2, #16777216
  43 0016 C3F8FC20 		str	r2, [r3, #252]
 275:Core/Src/liquidcrystal_i2c.c **** 
 276:Core/Src/liquidcrystal_i2c.c ****   DWT->CTRL &= ~DWT_CTRL_CYCCNTENA_Msk; //~0x00000001;
  44              		.loc 1 276 3 is_stmt 1 view .LVU7
  45              		.loc 1 276 6 is_stmt 0 view .LVU8
  46 001a A3F55D43 		sub	r3, r3, #56576
  47 001e 1A68     		ldr	r2, [r3]
  48              		.loc 1 276 13 view .LVU9
  49 0020 22F00102 		bic	r2, r2, #1
  50 0024 1A60     		str	r2, [r3]
 277:Core/Src/liquidcrystal_i2c.c ****   DWT->CTRL |=  DWT_CTRL_CYCCNTENA_Msk; //0x00000001;
  51              		.loc 1 277 3 is_stmt 1 view .LVU10
  52              		.loc 1 277 6 is_stmt 0 view .LVU11
  53 0026 1A68     		ldr	r2, [r3]
  54              		.loc 1 277 13 view .LVU12
  55 0028 42F00102 		orr	r2, r2, #1
  56 002c 1A60     		str	r2, [r3]
 278:Core/Src/liquidcrystal_i2c.c **** 
 279:Core/Src/liquidcrystal_i2c.c ****   DWT->CYCCNT = 0;
  57              		.loc 1 279 3 is_stmt 1 view .LVU13
  58              		.loc 1 279 15 is_stmt 0 view .LVU14
  59 002e 0022     		movs	r2, #0
  60 0030 5A60     		str	r2, [r3, #4]
 280:Core/Src/liquidcrystal_i2c.c **** 
 281:Core/Src/liquidcrystal_i2c.c ****   /* 3 NO OPERATION instructions */
 282:Core/Src/liquidcrystal_i2c.c ****   __ASM volatile ("NOP");
  61              		.loc 1 282 3 is_stmt 1 view .LVU15
ARM GAS  C:\Users\TeTe\AppData\Local\Temp\ccx2v98J.s 			page 7


  62              		.syntax unified
  63              	@ 282 "Core/Src/liquidcrystal_i2c.c" 1
  64 0032 00BF     		NOP
  65              	@ 0 "" 2
 283:Core/Src/liquidcrystal_i2c.c ****   __ASM volatile ("NOP");
  66              		.loc 1 283 3 view .LVU16
  67              	@ 283 "Core/Src/liquidcrystal_i2c.c" 1
  68 0034 00BF     		NOP
  69              	@ 0 "" 2
 284:Core/Src/liquidcrystal_i2c.c ****   __ASM volatile ("NOP");
  70              		.loc 1 284 3 view .LVU17
  71              	@ 284 "Core/Src/liquidcrystal_i2c.c" 1
  72 0036 00BF     		NOP
  73              	@ 0 "" 2
 285:Core/Src/liquidcrystal_i2c.c **** }
  74              		.loc 1 285 1 is_stmt 0 view .LVU18
  75              		.thumb
  76              		.syntax unified
  77 0038 7047     		bx	lr
  78              	.L3:
  79 003a 00BF     		.align	2
  80              	.L2:
  81 003c 00ED00E0 		.word	-536810240
  82              		.cfi_endproc
  83              	.LFE94:
  85              		.section	.text.DelayUS,"ax",%progbits
  86              		.align	1
  87              		.syntax unified
  88              		.thumb
  89              		.thumb_func
  91              	DelayUS:
  92              	.LVL0:
  93              	.LFB95:
 286:Core/Src/liquidcrystal_i2c.c **** 
 287:Core/Src/liquidcrystal_i2c.c **** static void DelayUS(uint32_t us) {
  94              		.loc 1 287 34 is_stmt 1 view -0
  95              		.cfi_startproc
  96              		@ args = 0, pretend = 0, frame = 8
  97              		@ frame_needed = 0, uses_anonymous_args = 0
  98              		@ link register save eliminated.
  99              		.loc 1 287 34 is_stmt 0 view .LVU20
 100 0000 82B0     		sub	sp, sp, #8
 101              	.LCFI0:
 102              		.cfi_def_cfa_offset 8
 288:Core/Src/liquidcrystal_i2c.c ****   uint32_t cycles = (SystemCoreClock/1000000L)*us;
 103              		.loc 1 288 3 is_stmt 1 view .LVU21
 104              		.loc 1 288 37 is_stmt 0 view .LVU22
 105 0002 094B     		ldr	r3, .L7
 106 0004 1B68     		ldr	r3, [r3]
 107 0006 094A     		ldr	r2, .L7+4
 108 0008 A2FB0323 		umull	r2, r3, r2, r3
 109 000c 9B0C     		lsrs	r3, r3, #18
 110              		.loc 1 288 12 view .LVU23
 111 000e 03FB00F0 		mul	r0, r3, r0
 112              	.LVL1:
 289:Core/Src/liquidcrystal_i2c.c ****   uint32_t start = DWT->CYCCNT;
 113              		.loc 1 289 3 is_stmt 1 view .LVU24
ARM GAS  C:\Users\TeTe\AppData\Local\Temp\ccx2v98J.s 			page 8


 114              		.loc 1 289 12 is_stmt 0 view .LVU25
 115 0012 074B     		ldr	r3, .L7+8
 116 0014 5A68     		ldr	r2, [r3, #4]
 117              	.LVL2:
 118              	.L5:
 290:Core/Src/liquidcrystal_i2c.c ****   volatile uint32_t cnt;
 119              		.loc 1 290 3 is_stmt 1 view .LVU26
 291:Core/Src/liquidcrystal_i2c.c **** 
 292:Core/Src/liquidcrystal_i2c.c ****   do
 120              		.loc 1 292 3 view .LVU27
 293:Core/Src/liquidcrystal_i2c.c ****   {
 294:Core/Src/liquidcrystal_i2c.c ****     cnt = DWT->CYCCNT - start;
 121              		.loc 1 294 5 view .LVU28
 122              		.loc 1 294 14 is_stmt 0 view .LVU29
 123 0016 064B     		ldr	r3, .L7+8
 124 0018 5B68     		ldr	r3, [r3, #4]
 125              		.loc 1 294 23 view .LVU30
 126 001a 9B1A     		subs	r3, r3, r2
 127              		.loc 1 294 9 view .LVU31
 128 001c 0193     		str	r3, [sp, #4]
 295:Core/Src/liquidcrystal_i2c.c ****   } while(cnt < cycles);
 129              		.loc 1 295 15 is_stmt 1 discriminator 1 view .LVU32
 130 001e 019B     		ldr	r3, [sp, #4]
 131 0020 8342     		cmp	r3, r0
 132 0022 F8D3     		bcc	.L5
 296:Core/Src/liquidcrystal_i2c.c **** }...
 133              		.loc 1 296 1 is_stmt 0 view .LVU33
 134 0024 02B0     		add	sp, sp, #8
 135              	.LCFI1:
 136              		.cfi_def_cfa_offset 0
 137              		@ sp needed
 138 0026 7047     		bx	lr
 139              	.L8:
 140              		.align	2
 141              	.L7:
 142 0028 00000000 		.word	SystemCoreClock
 143 002c 83DE1B43 		.word	1125899907
 144 0030 001000E0 		.word	-536866816
 145              		.cfi_endproc
 146              	.LFE95:
 148              		.section	.text.ExpanderWrite,"ax",%progbits
 149              		.align	1
 150              		.syntax unified
 151              		.thumb
 152              		.thumb_func
 154              	ExpanderWrite:
 155              	.LVL3:
 156              	.LFB92:
 257:Core/Src/liquidcrystal_i2c.c **** {
 157              		.loc 1 257 1 is_stmt 1 view -0
 158              		.cfi_startproc
 159              		@ args = 0, pretend = 0, frame = 8
 160              		@ frame_needed = 0, uses_anonymous_args = 0
 257:Core/Src/liquidcrystal_i2c.c **** {
 161              		.loc 1 257 1 is_stmt 0 view .LVU35
 162 0000 00B5     		push	{lr}
 163              	.LCFI2:
ARM GAS  C:\Users\TeTe\AppData\Local\Temp\ccx2v98J.s 			page 9


 164              		.cfi_def_cfa_offset 4
 165              		.cfi_offset 14, -4
 166 0002 85B0     		sub	sp, sp, #20
 167              	.LCFI3:
 168              		.cfi_def_cfa_offset 24
 258:Core/Src/liquidcrystal_i2c.c ****   uint8_t data = _data | dpBacklight;
 169              		.loc 1 258 3 is_stmt 1 view .LVU36
 258:Core/Src/liquidcrystal_i2c.c ****   uint8_t data = _data | dpBacklight;
 170              		.loc 1 258 11 is_stmt 0 view .LVU37
 171 0004 084B     		ldr	r3, .L11
 172 0006 1B78     		ldrb	r3, [r3]	@ zero_extendqisi2
 173 0008 1843     		orrs	r0, r0, r3
 174              	.LVL4:
 258:Core/Src/liquidcrystal_i2c.c ****   uint8_t data = _data | dpBacklight;
 175              		.loc 1 258 11 view .LVU38
 176 000a 8DF80F00 		strb	r0, [sp, #15]
 259:Core/Src/liquidcrystal_i2c.c ****   HAL_I2C_Master_Transmit(&hi2c1, DEVICE_ADDR, (uint8_t*)&data, 1, 10);
 177              		.loc 1 259 3 is_stmt 1 view .LVU39
 178 000e 0A23     		movs	r3, #10
 179 0010 0093     		str	r3, [sp]
 180 0012 0123     		movs	r3, #1
 181 0014 0DF10F02 		add	r2, sp, #15
 182 0018 4E21     		movs	r1, #78
 183 001a 0448     		ldr	r0, .L11+4
 184 001c FFF7FEFF 		bl	HAL_I2C_Master_Transmit
 185              	.LVL5:
 260:Core/Src/liquidcrystal_i2c.c **** }
 186              		.loc 1 260 1 is_stmt 0 view .LVU40
 187 0020 05B0     		add	sp, sp, #20
 188              	.LCFI4:
 189              		.cfi_def_cfa_offset 4
 190              		@ sp needed
 191 0022 5DF804FB 		ldr	pc, [sp], #4
 192              	.L12:
 193 0026 00BF     		.align	2
 194              	.L11:
 195 0028 00000000 		.word	dpBacklight
 196 002c 00000000 		.word	hi2c1
 197              		.cfi_endproc
 198              	.LFE92:
 200              		.section	.text.PulseEnable,"ax",%progbits
 201              		.align	1
 202              		.syntax unified
 203              		.thumb
 204              		.thumb_func
 206              	PulseEnable:
 207              	.LVL6:
 208              	.LFB93:
 263:Core/Src/liquidcrystal_i2c.c **** {
 209              		.loc 1 263 1 is_stmt 1 view -0
 210              		.cfi_startproc
 211              		@ args = 0, pretend = 0, frame = 0
 212              		@ frame_needed = 0, uses_anonymous_args = 0
 263:Core/Src/liquidcrystal_i2c.c **** {
 213              		.loc 1 263 1 is_stmt 0 view .LVU42
 214 0000 10B5     		push	{r4, lr}
 215              	.LCFI5:
ARM GAS  C:\Users\TeTe\AppData\Local\Temp\ccx2v98J.s 			page 10


 216              		.cfi_def_cfa_offset 8
 217              		.cfi_offset 4, -8
 218              		.cfi_offset 14, -4
 219 0002 0446     		mov	r4, r0
 264:Core/Src/liquidcrystal_i2c.c ****   ExpanderWrite(_data | ENABLE);
 220              		.loc 1 264 3 is_stmt 1 view .LVU43
 221 0004 40F00400 		orr	r0, r0, #4
 222              	.LVL7:
 264:Core/Src/liquidcrystal_i2c.c ****   ExpanderWrite(_data | ENABLE);
 223              		.loc 1 264 3 is_stmt 0 view .LVU44
 224 0008 FFF7FEFF 		bl	ExpanderWrite
 225              	.LVL8:
 265:Core/Src/liquidcrystal_i2c.c ****   DelayUS(20);
 226              		.loc 1 265 3 is_stmt 1 view .LVU45
 227 000c 1420     		movs	r0, #20
 228 000e FFF7FEFF 		bl	DelayUS
 229              	.LVL9:
 267:Core/Src/liquidcrystal_i2c.c ****   ExpanderWrite(_data & ~ENABLE);
 230              		.loc 1 267 3 view .LVU46
 231 0012 04F0FB00 		and	r0, r4, #251
 232 0016 FFF7FEFF 		bl	ExpanderWrite
 233              	.LVL10:
 268:Core/Src/liquidcrystal_i2c.c ****   DelayUS(20);
 234              		.loc 1 268 3 view .LVU47
 235 001a 1420     		movs	r0, #20
 236 001c FFF7FEFF 		bl	DelayUS
 237              	.LVL11:
 269:Core/Src/liquidcrystal_i2c.c **** }
 238              		.loc 1 269 1 is_stmt 0 view .LVU48
 239 0020 10BD     		pop	{r4, pc}
 269:Core/Src/liquidcrystal_i2c.c **** }
 240              		.loc 1 269 1 view .LVU49
 241              		.cfi_endproc
 242              	.LFE93:
 244              		.section	.text.Write4Bits,"ax",%progbits
 245              		.align	1
 246              		.syntax unified
 247              		.thumb
 248              		.thumb_func
 250              	Write4Bits:
 251              	.LVL12:
 252              	.LFB91:
 251:Core/Src/liquidcrystal_i2c.c **** {
 253              		.loc 1 251 1 is_stmt 1 view -0
 254              		.cfi_startproc
 255              		@ args = 0, pretend = 0, frame = 0
 256              		@ frame_needed = 0, uses_anonymous_args = 0
 251:Core/Src/liquidcrystal_i2c.c **** {
 257              		.loc 1 251 1 is_stmt 0 view .LVU51
 258 0000 10B5     		push	{r4, lr}
 259              	.LCFI6:
 260              		.cfi_def_cfa_offset 8
 261              		.cfi_offset 4, -8
 262              		.cfi_offset 14, -4
 263 0002 0446     		mov	r4, r0
 252:Core/Src/liquidcrystal_i2c.c ****   ExpanderWrite(value);
 264              		.loc 1 252 3 is_stmt 1 view .LVU52
ARM GAS  C:\Users\TeTe\AppData\Local\Temp\ccx2v98J.s 			page 11


 265 0004 FFF7FEFF 		bl	ExpanderWrite
 266              	.LVL13:
 253:Core/Src/liquidcrystal_i2c.c ****   PulseEnable(value);
 267              		.loc 1 253 3 view .LVU53
 268 0008 2046     		mov	r0, r4
 269 000a FFF7FEFF 		bl	PulseEnable
 270              	.LVL14:
 254:Core/Src/liquidcrystal_i2c.c **** }
 271              		.loc 1 254 1 is_stmt 0 view .LVU54
 272 000e 10BD     		pop	{r4, pc}
 254:Core/Src/liquidcrystal_i2c.c **** }
 273              		.loc 1 254 1 view .LVU55
 274              		.cfi_endproc
 275              	.LFE91:
 277              		.section	.text.Send,"ax",%progbits
 278              		.align	1
 279              		.syntax unified
 280              		.thumb
 281              		.thumb_func
 283              	Send:
 284              	.LVL15:
 285              	.LFB90:
 243:Core/Src/liquidcrystal_i2c.c **** {
 286              		.loc 1 243 1 is_stmt 1 view -0
 287              		.cfi_startproc
 288              		@ args = 0, pretend = 0, frame = 0
 289              		@ frame_needed = 0, uses_anonymous_args = 0
 243:Core/Src/liquidcrystal_i2c.c **** {
 290              		.loc 1 243 1 is_stmt 0 view .LVU57
 291 0000 38B5     		push	{r3, r4, r5, lr}
 292              	.LCFI7:
 293              		.cfi_def_cfa_offset 16
 294              		.cfi_offset 3, -16
 295              		.cfi_offset 4, -12
 296              		.cfi_offset 5, -8
 297              		.cfi_offset 14, -4
 298 0002 0D46     		mov	r5, r1
 244:Core/Src/liquidcrystal_i2c.c ****   uint8_t highnib = value & 0xF0;
 299              		.loc 1 244 3 is_stmt 1 view .LVU58
 244:Core/Src/liquidcrystal_i2c.c ****   uint8_t highnib = value & 0xF0;
 300              		.loc 1 244 11 is_stmt 0 view .LVU59
 301 0004 00F0F003 		and	r3, r0, #240
 302              	.LVL16:
 245:Core/Src/liquidcrystal_i2c.c ****   uint8_t lownib = (value<<4) & 0xF0;
 303              		.loc 1 245 3 is_stmt 1 view .LVU60
 245:Core/Src/liquidcrystal_i2c.c ****   uint8_t lownib = (value<<4) & 0xF0;
 304              		.loc 1 245 11 is_stmt 0 view .LVU61
 305 0008 0401     		lsls	r4, r0, #4
 306 000a E4B2     		uxtb	r4, r4
 307              	.LVL17:
 246:Core/Src/liquidcrystal_i2c.c ****   Write4Bits((highnib)|mode);
 308              		.loc 1 246 3 is_stmt 1 view .LVU62
 309 000c 43EA0100 		orr	r0, r3, r1
 310              	.LVL18:
 246:Core/Src/liquidcrystal_i2c.c ****   Write4Bits((highnib)|mode);
 311              		.loc 1 246 3 is_stmt 0 view .LVU63
 312 0010 FFF7FEFF 		bl	Write4Bits
ARM GAS  C:\Users\TeTe\AppData\Local\Temp\ccx2v98J.s 			page 12


 313              	.LVL19:
 247:Core/Src/liquidcrystal_i2c.c ****   Write4Bits((lownib)|mode);
 314              		.loc 1 247 3 is_stmt 1 view .LVU64
 315 0014 44EA0500 		orr	r0, r4, r5
 316 0018 FFF7FEFF 		bl	Write4Bits
 317              	.LVL20:
 248:Core/Src/liquidcrystal_i2c.c **** }
 318              		.loc 1 248 1 is_stmt 0 view .LVU65
 319 001c 38BD     		pop	{r3, r4, r5, pc}
 248:Core/Src/liquidcrystal_i2c.c **** }
 320              		.loc 1 248 1 view .LVU66
 321              		.cfi_endproc
 322              	.LFE90:
 324              		.section	.text.SendCommand,"ax",%progbits
 325              		.align	1
 326              		.syntax unified
 327              		.thumb
 328              		.thumb_func
 330              	SendCommand:
 331              	.LVL21:
 332              	.LFB88:
 233:Core/Src/liquidcrystal_i2c.c **** {
 333              		.loc 1 233 1 is_stmt 1 view -0
 334              		.cfi_startproc
 335              		@ args = 0, pretend = 0, frame = 0
 336              		@ frame_needed = 0, uses_anonymous_args = 0
 233:Core/Src/liquidcrystal_i2c.c **** {
 337              		.loc 1 233 1 is_stmt 0 view .LVU68
 338 0000 08B5     		push	{r3, lr}
 339              	.LCFI8:
 340              		.cfi_def_cfa_offset 8
 341              		.cfi_offset 3, -8
 342              		.cfi_offset 14, -4
 234:Core/Src/liquidcrystal_i2c.c ****   Send(cmd, 0);
 343              		.loc 1 234 3 is_stmt 1 view .LVU69
 344 0002 0021     		movs	r1, #0
 345 0004 FFF7FEFF 		bl	Send
 346              	.LVL22:
 235:Core/Src/liquidcrystal_i2c.c **** }
 347              		.loc 1 235 1 is_stmt 0 view .LVU70
 348 0008 08BD     		pop	{r3, pc}
 349              		.cfi_endproc
 350              	.LFE88:
 352              		.section	.text.SendChar,"ax",%progbits
 353              		.align	1
 354              		.syntax unified
 355              		.thumb
 356              		.thumb_func
 358              	SendChar:
 359              	.LVL23:
 360              	.LFB89:
 238:Core/Src/liquidcrystal_i2c.c **** {
 361              		.loc 1 238 1 is_stmt 1 view -0
 362              		.cfi_startproc
 363              		@ args = 0, pretend = 0, frame = 0
 364              		@ frame_needed = 0, uses_anonymous_args = 0
 238:Core/Src/liquidcrystal_i2c.c **** {
ARM GAS  C:\Users\TeTe\AppData\Local\Temp\ccx2v98J.s 			page 13


 365              		.loc 1 238 1 is_stmt 0 view .LVU72
 366 0000 08B5     		push	{r3, lr}
 367              	.LCFI9:
 368              		.cfi_def_cfa_offset 8
 369              		.cfi_offset 3, -8
 370              		.cfi_offset 14, -4
 239:Core/Src/liquidcrystal_i2c.c ****   Send(ch, RS);
 371              		.loc 1 239 3 is_stmt 1 view .LVU73
 372 0002 0121     		movs	r1, #1
 373 0004 FFF7FEFF 		bl	Send
 374              	.LVL24:
 240:Core/Src/liquidcrystal_i2c.c **** }
 375              		.loc 1 240 1 is_stmt 0 view .LVU74
 376 0008 08BD     		pop	{r3, pc}
 377              		.cfi_endproc
 378              	.LFE89:
 380              		.section	.text.HD44780_Clear,"ax",%progbits
 381              		.align	1
 382              		.global	HD44780_Clear
 383              		.syntax unified
 384              		.thumb
 385              		.thumb_func
 387              	HD44780_Clear:
 388              	.LFB66:
  98:Core/Src/liquidcrystal_i2c.c **** {
 389              		.loc 1 98 1 is_stmt 1 view -0
 390              		.cfi_startproc
 391              		@ args = 0, pretend = 0, frame = 0
 392              		@ frame_needed = 0, uses_anonymous_args = 0
 393 0000 08B5     		push	{r3, lr}
 394              	.LCFI10:
 395              		.cfi_def_cfa_offset 8
 396              		.cfi_offset 3, -8
 397              		.cfi_offset 14, -4
  99:Core/Src/liquidcrystal_i2c.c ****   SendCommand(LCD_CLEARDISPLAY);
 398              		.loc 1 99 3 view .LVU76
 399 0002 0120     		movs	r0, #1
 400 0004 FFF7FEFF 		bl	SendCommand
 401              	.LVL25:
 100:Core/Src/liquidcrystal_i2c.c ****   DelayUS(2000);
 402              		.loc 1 100 3 view .LVU77
 403 0008 4FF4FA60 		mov	r0, #2000
 404 000c FFF7FEFF 		bl	DelayUS
 405              	.LVL26:
 101:Core/Src/liquidcrystal_i2c.c **** }
 406              		.loc 1 101 1 is_stmt 0 view .LVU78
 407 0010 08BD     		pop	{r3, pc}
 408              		.cfi_endproc
 409              	.LFE66:
 411              		.section	.text.HD44780_Home,"ax",%progbits
 412              		.align	1
 413              		.global	HD44780_Home
 414              		.syntax unified
 415              		.thumb
 416              		.thumb_func
 418              	HD44780_Home:
 419              	.LFB67:
ARM GAS  C:\Users\TeTe\AppData\Local\Temp\ccx2v98J.s 			page 14


 104:Core/Src/liquidcrystal_i2c.c **** {
 420              		.loc 1 104 1 is_stmt 1 view -0
 421              		.cfi_startproc
 422              		@ args = 0, pretend = 0, frame = 0
 423              		@ frame_needed = 0, uses_anonymous_args = 0
 424 0000 08B5     		push	{r3, lr}
 425              	.LCFI11:
 426              		.cfi_def_cfa_offset 8
 427              		.cfi_offset 3, -8
 428              		.cfi_offset 14, -4
 105:Core/Src/liquidcrystal_i2c.c ****   SendCommand(LCD_RETURNHOME);
 429              		.loc 1 105 3 view .LVU80
 430 0002 0220     		movs	r0, #2
 431 0004 FFF7FEFF 		bl	SendCommand
 432              	.LVL27:
 106:Core/Src/liquidcrystal_i2c.c ****   DelayUS(2000);
 433              		.loc 1 106 3 view .LVU81
 434 0008 4FF4FA60 		mov	r0, #2000
 435 000c FFF7FEFF 		bl	DelayUS
 436              	.LVL28:
 107:Core/Src/liquidcrystal_i2c.c **** }
 437              		.loc 1 107 1 is_stmt 0 view .LVU82
 438 0010 08BD     		pop	{r3, pc}
 439              		.cfi_endproc
 440              	.LFE67:
 442              		.section	.text.HD44780_SetCursor,"ax",%progbits
 443              		.align	1
 444              		.global	HD44780_SetCursor
 445              		.syntax unified
 446              		.thumb
 447              		.thumb_func
 449              	HD44780_SetCursor:
 450              	.LVL29:
 451              	.LFB68:
 110:Core/Src/liquidcrystal_i2c.c **** {
 452              		.loc 1 110 1 is_stmt 1 view -0
 453              		.cfi_startproc
 454              		@ args = 0, pretend = 0, frame = 16
 455              		@ frame_needed = 0, uses_anonymous_args = 0
 110:Core/Src/liquidcrystal_i2c.c **** {
 456              		.loc 1 110 1 is_stmt 0 view .LVU84
 457 0000 10B5     		push	{r4, lr}
 458              	.LCFI12:
 459              		.cfi_def_cfa_offset 8
 460              		.cfi_offset 4, -8
 461              		.cfi_offset 14, -4
 462 0002 84B0     		sub	sp, sp, #16
 463              	.LCFI13:
 464              		.cfi_def_cfa_offset 24
 465 0004 8446     		mov	ip, r0
 466 0006 8E46     		mov	lr, r1
 111:Core/Src/liquidcrystal_i2c.c ****   int row_offsets[] = { 0x00, 0x40, 0x14, 0x54 };
 467              		.loc 1 111 3 is_stmt 1 view .LVU85
 111:Core/Src/liquidcrystal_i2c.c ****   int row_offsets[] = { 0x00, 0x40, 0x14, 0x54 };
 468              		.loc 1 111 7 is_stmt 0 view .LVU86
 469 0008 0C4B     		ldr	r3, .L30
 470 000a 0FCB     		ldm	r3, {r0, r1, r2, r3}
ARM GAS  C:\Users\TeTe\AppData\Local\Temp\ccx2v98J.s 			page 15


 471              	.LVL30:
 111:Core/Src/liquidcrystal_i2c.c ****   int row_offsets[] = { 0x00, 0x40, 0x14, 0x54 };
 472              		.loc 1 111 7 view .LVU87
 473 000c 04AC     		add	r4, sp, #16
 474 000e 04E90F00 		stmdb	r4, {r0, r1, r2, r3}
 112:Core/Src/liquidcrystal_i2c.c ****   if (row >= dpRows)
 475              		.loc 1 112 3 is_stmt 1 view .LVU88
 112:Core/Src/liquidcrystal_i2c.c ****   if (row >= dpRows)
 476              		.loc 1 112 11 is_stmt 0 view .LVU89
 477 0012 0B4B     		ldr	r3, .L30+4
 478 0014 1B78     		ldrb	r3, [r3]	@ zero_extendqisi2
 112:Core/Src/liquidcrystal_i2c.c ****   if (row >= dpRows)
 479              		.loc 1 112 6 view .LVU90
 480 0016 7345     		cmp	r3, lr
 481 0018 02D8     		bhi	.L28
 114:Core/Src/liquidcrystal_i2c.c ****     row = dpRows-1;
 482              		.loc 1 114 5 is_stmt 1 view .LVU91
 114:Core/Src/liquidcrystal_i2c.c ****     row = dpRows-1;
 483              		.loc 1 114 9 is_stmt 0 view .LVU92
 484 001a 013B     		subs	r3, r3, #1
 485 001c 5FFA83FE 		uxtb	lr, r3
 486              	.LVL31:
 487              	.L28:
 116:Core/Src/liquidcrystal_i2c.c ****   SendCommand(LCD_SETDDRAMADDR | (col + row_offsets[row]));
 488              		.loc 1 116 3 is_stmt 1 view .LVU93
 116:Core/Src/liquidcrystal_i2c.c ****   SendCommand(LCD_SETDDRAMADDR | (col + row_offsets[row]));
 489              		.loc 1 116 52 is_stmt 0 view .LVU94
 490 0020 04AB     		add	r3, sp, #16
 491 0022 03EB8E0E 		add	lr, r3, lr, lsl #2
 492              	.LVL32:
 116:Core/Src/liquidcrystal_i2c.c ****   SendCommand(LCD_SETDDRAMADDR | (col + row_offsets[row]));
 493              		.loc 1 116 52 view .LVU95
 494 0026 5EF8100C 		ldr	r0, [lr, #-16]
 116:Core/Src/liquidcrystal_i2c.c ****   SendCommand(LCD_SETDDRAMADDR | (col + row_offsets[row]));
 495              		.loc 1 116 39 view .LVU96
 496 002a 6044     		add	r0, r0, ip
 116:Core/Src/liquidcrystal_i2c.c ****   SendCommand(LCD_SETDDRAMADDR | (col + row_offsets[row]));
 497              		.loc 1 116 3 view .LVU97
 498 002c 60F07F00 		orn	r0, r0, #127
 499 0030 C0B2     		uxtb	r0, r0
 500 0032 FFF7FEFF 		bl	SendCommand
 501              	.LVL33:
 117:Core/Src/liquidcrystal_i2c.c **** }
 502              		.loc 1 117 1 view .LVU98
 503 0036 04B0     		add	sp, sp, #16
 504              	.LCFI14:
 505              		.cfi_def_cfa_offset 8
 506              		@ sp needed
 507 0038 10BD     		pop	{r4, pc}
 508              	.L31:
 509 003a 00BF     		.align	2
 510              	.L30:
 511 003c 00000000 		.word	.LANCHOR0
 512 0040 00000000 		.word	dpRows
 513              		.cfi_endproc
 514              	.LFE68:
 516              		.section	.text.HD44780_NoDisplay,"ax",%progbits
ARM GAS  C:\Users\TeTe\AppData\Local\Temp\ccx2v98J.s 			page 16


 517              		.align	1
 518              		.global	HD44780_NoDisplay
 519              		.syntax unified
 520              		.thumb
 521              		.thumb_func
 523              	HD44780_NoDisplay:
 524              	.LFB69:
 120:Core/Src/liquidcrystal_i2c.c **** {
 525              		.loc 1 120 1 is_stmt 1 view -0
 526              		.cfi_startproc
 527              		@ args = 0, pretend = 0, frame = 0
 528              		@ frame_needed = 0, uses_anonymous_args = 0
 529 0000 08B5     		push	{r3, lr}
 530              	.LCFI15:
 531              		.cfi_def_cfa_offset 8
 532              		.cfi_offset 3, -8
 533              		.cfi_offset 14, -4
 121:Core/Src/liquidcrystal_i2c.c ****   dpControl &= ~LCD_DISPLAYON;
 534              		.loc 1 121 3 view .LVU100
 121:Core/Src/liquidcrystal_i2c.c ****   dpControl &= ~LCD_DISPLAYON;
 535              		.loc 1 121 13 is_stmt 0 view .LVU101
 536 0002 054B     		ldr	r3, .L34
 537 0004 1878     		ldrb	r0, [r3]	@ zero_extendqisi2
 538 0006 00F0FB00 		and	r0, r0, #251
 539 000a 1870     		strb	r0, [r3]
 122:Core/Src/liquidcrystal_i2c.c ****   SendCommand(LCD_DISPLAYCONTROL | dpControl);
 540              		.loc 1 122 3 is_stmt 1 view .LVU102
 541 000c 40F00800 		orr	r0, r0, #8
 542 0010 FFF7FEFF 		bl	SendCommand
 543              	.LVL34:
 123:Core/Src/liquidcrystal_i2c.c **** }
 544              		.loc 1 123 1 is_stmt 0 view .LVU103
 545 0014 08BD     		pop	{r3, pc}
 546              	.L35:
 547 0016 00BF     		.align	2
 548              	.L34:
 549 0018 00000000 		.word	dpControl
 550              		.cfi_endproc
 551              	.LFE69:
 553              		.section	.text.HD44780_Display,"ax",%progbits
 554              		.align	1
 555              		.global	HD44780_Display
 556              		.syntax unified
 557              		.thumb
 558              		.thumb_func
 560              	HD44780_Display:
 561              	.LFB70:
 126:Core/Src/liquidcrystal_i2c.c **** {
 562              		.loc 1 126 1 is_stmt 1 view -0
 563              		.cfi_startproc
 564              		@ args = 0, pretend = 0, frame = 0
 565              		@ frame_needed = 0, uses_anonymous_args = 0
 566 0000 08B5     		push	{r3, lr}
 567              	.LCFI16:
 568              		.cfi_def_cfa_offset 8
 569              		.cfi_offset 3, -8
 570              		.cfi_offset 14, -4
ARM GAS  C:\Users\TeTe\AppData\Local\Temp\ccx2v98J.s 			page 17


 127:Core/Src/liquidcrystal_i2c.c ****   dpControl |= LCD_DISPLAYON;
 571              		.loc 1 127 3 view .LVU105
 127:Core/Src/liquidcrystal_i2c.c ****   dpControl |= LCD_DISPLAYON;
 572              		.loc 1 127 13 is_stmt 0 view .LVU106
 573 0002 054B     		ldr	r3, .L38
 574 0004 1878     		ldrb	r0, [r3]	@ zero_extendqisi2
 575 0006 40F00402 		orr	r2, r0, #4
 576 000a 1A70     		strb	r2, [r3]
 128:Core/Src/liquidcrystal_i2c.c ****   SendCommand(LCD_DISPLAYCONTROL | dpControl);
 577              		.loc 1 128 3 is_stmt 1 view .LVU107
 578 000c 40F00C00 		orr	r0, r0, #12
 579 0010 FFF7FEFF 		bl	SendCommand
 580              	.LVL35:
 129:Core/Src/liquidcrystal_i2c.c **** }
 581              		.loc 1 129 1 is_stmt 0 view .LVU108
 582 0014 08BD     		pop	{r3, pc}
 583              	.L39:
 584 0016 00BF     		.align	2
 585              	.L38:
 586 0018 00000000 		.word	dpControl
 587              		.cfi_endproc
 588              	.LFE70:
 590              		.section	.text.HD44780_NoCursor,"ax",%progbits
 591              		.align	1
 592              		.global	HD44780_NoCursor
 593              		.syntax unified
 594              		.thumb
 595              		.thumb_func
 597              	HD44780_NoCursor:
 598              	.LFB71:
 132:Core/Src/liquidcrystal_i2c.c **** {
 599              		.loc 1 132 1 is_stmt 1 view -0
 600              		.cfi_startproc
 601              		@ args = 0, pretend = 0, frame = 0
 602              		@ frame_needed = 0, uses_anonymous_args = 0
 603 0000 08B5     		push	{r3, lr}
 604              	.LCFI17:
 605              		.cfi_def_cfa_offset 8
 606              		.cfi_offset 3, -8
 607              		.cfi_offset 14, -4
 133:Core/Src/liquidcrystal_i2c.c ****   dpControl &= ~LCD_CURSORON;
 608              		.loc 1 133 3 view .LVU110
 133:Core/Src/liquidcrystal_i2c.c ****   dpControl &= ~LCD_CURSORON;
 609              		.loc 1 133 13 is_stmt 0 view .LVU111
 610 0002 054B     		ldr	r3, .L42
 611 0004 1878     		ldrb	r0, [r3]	@ zero_extendqisi2
 612 0006 00F0FD00 		and	r0, r0, #253
 613 000a 1870     		strb	r0, [r3]
 134:Core/Src/liquidcrystal_i2c.c ****   SendCommand(LCD_DISPLAYCONTROL | dpControl);
 614              		.loc 1 134 3 is_stmt 1 view .LVU112
 615 000c 40F00800 		orr	r0, r0, #8
 616 0010 FFF7FEFF 		bl	SendCommand
 617              	.LVL36:
 135:Core/Src/liquidcrystal_i2c.c **** }
 618              		.loc 1 135 1 is_stmt 0 view .LVU113
 619 0014 08BD     		pop	{r3, pc}
 620              	.L43:
ARM GAS  C:\Users\TeTe\AppData\Local\Temp\ccx2v98J.s 			page 18


 621 0016 00BF     		.align	2
 622              	.L42:
 623 0018 00000000 		.word	dpControl
 624              		.cfi_endproc
 625              	.LFE71:
 627              		.section	.text.HD44780_Cursor,"ax",%progbits
 628              		.align	1
 629              		.global	HD44780_Cursor
 630              		.syntax unified
 631              		.thumb
 632              		.thumb_func
 634              	HD44780_Cursor:
 635              	.LFB72:
 138:Core/Src/liquidcrystal_i2c.c **** {
 636              		.loc 1 138 1 is_stmt 1 view -0
 637              		.cfi_startproc
 638              		@ args = 0, pretend = 0, frame = 0
 639              		@ frame_needed = 0, uses_anonymous_args = 0
 640 0000 08B5     		push	{r3, lr}
 641              	.LCFI18:
 642              		.cfi_def_cfa_offset 8
 643              		.cfi_offset 3, -8
 644              		.cfi_offset 14, -4
 139:Core/Src/liquidcrystal_i2c.c ****   dpControl |= LCD_CURSORON;
 645              		.loc 1 139 3 view .LVU115
 139:Core/Src/liquidcrystal_i2c.c ****   dpControl |= LCD_CURSORON;
 646              		.loc 1 139 13 is_stmt 0 view .LVU116
 647 0002 054B     		ldr	r3, .L46
 648 0004 1878     		ldrb	r0, [r3]	@ zero_extendqisi2
 649 0006 40F00202 		orr	r2, r0, #2
 650 000a 1A70     		strb	r2, [r3]
 140:Core/Src/liquidcrystal_i2c.c ****   SendCommand(LCD_DISPLAYCONTROL | dpControl);
 651              		.loc 1 140 3 is_stmt 1 view .LVU117
 652 000c 40F00A00 		orr	r0, r0, #10
 653 0010 FFF7FEFF 		bl	SendCommand
 654              	.LVL37:
 141:Core/Src/liquidcrystal_i2c.c **** }
 655              		.loc 1 141 1 is_stmt 0 view .LVU118
 656 0014 08BD     		pop	{r3, pc}
 657              	.L47:
 658 0016 00BF     		.align	2
 659              	.L46:
 660 0018 00000000 		.word	dpControl
 661              		.cfi_endproc
 662              	.LFE72:
 664              		.section	.text.HD44780_NoBlink,"ax",%progbits
 665              		.align	1
 666              		.global	HD44780_NoBlink
 667              		.syntax unified
 668              		.thumb
 669              		.thumb_func
 671              	HD44780_NoBlink:
 672              	.LFB73:
 144:Core/Src/liquidcrystal_i2c.c **** {
 673              		.loc 1 144 1 is_stmt 1 view -0
 674              		.cfi_startproc
 675              		@ args = 0, pretend = 0, frame = 0
ARM GAS  C:\Users\TeTe\AppData\Local\Temp\ccx2v98J.s 			page 19


 676              		@ frame_needed = 0, uses_anonymous_args = 0
 677 0000 08B5     		push	{r3, lr}
 678              	.LCFI19:
 679              		.cfi_def_cfa_offset 8
 680              		.cfi_offset 3, -8
 681              		.cfi_offset 14, -4
 145:Core/Src/liquidcrystal_i2c.c ****   dpControl &= ~LCD_BLINKON;
 682              		.loc 1 145 3 view .LVU120
 145:Core/Src/liquidcrystal_i2c.c ****   dpControl &= ~LCD_BLINKON;
 683              		.loc 1 145 13 is_stmt 0 view .LVU121
 684 0002 054B     		ldr	r3, .L50
 685 0004 1878     		ldrb	r0, [r3]	@ zero_extendqisi2
 686 0006 00F0FE00 		and	r0, r0, #254
 687 000a 1870     		strb	r0, [r3]
 146:Core/Src/liquidcrystal_i2c.c ****   SendCommand(LCD_DISPLAYCONTROL | dpControl);
 688              		.loc 1 146 3 is_stmt 1 view .LVU122
 689 000c 40F00800 		orr	r0, r0, #8
 690 0010 FFF7FEFF 		bl	SendCommand
 691              	.LVL38:
 147:Core/Src/liquidcrystal_i2c.c **** }
 692              		.loc 1 147 1 is_stmt 0 view .LVU123
 693 0014 08BD     		pop	{r3, pc}
 694              	.L51:
 695 0016 00BF     		.align	2
 696              	.L50:
 697 0018 00000000 		.word	dpControl
 698              		.cfi_endproc
 699              	.LFE73:
 701              		.section	.text.HD44780_Blink,"ax",%progbits
 702              		.align	1
 703              		.global	HD44780_Blink
 704              		.syntax unified
 705              		.thumb
 706              		.thumb_func
 708              	HD44780_Blink:
 709              	.LFB74:
 150:Core/Src/liquidcrystal_i2c.c **** {
 710              		.loc 1 150 1 is_stmt 1 view -0
 711              		.cfi_startproc
 712              		@ args = 0, pretend = 0, frame = 0
 713              		@ frame_needed = 0, uses_anonymous_args = 0
 714 0000 08B5     		push	{r3, lr}
 715              	.LCFI20:
 716              		.cfi_def_cfa_offset 8
 717              		.cfi_offset 3, -8
 718              		.cfi_offset 14, -4
 151:Core/Src/liquidcrystal_i2c.c ****   dpControl |= LCD_BLINKON;
 719              		.loc 1 151 3 view .LVU125
 151:Core/Src/liquidcrystal_i2c.c ****   dpControl |= LCD_BLINKON;
 720              		.loc 1 151 13 is_stmt 0 view .LVU126
 721 0002 054B     		ldr	r3, .L54
 722 0004 1878     		ldrb	r0, [r3]	@ zero_extendqisi2
 723 0006 40F00102 		orr	r2, r0, #1
 724 000a 1A70     		strb	r2, [r3]
 152:Core/Src/liquidcrystal_i2c.c ****   SendCommand(LCD_DISPLAYCONTROL | dpControl);
 725              		.loc 1 152 3 is_stmt 1 view .LVU127
 726 000c 40F00900 		orr	r0, r0, #9
ARM GAS  C:\Users\TeTe\AppData\Local\Temp\ccx2v98J.s 			page 20


 727 0010 FFF7FEFF 		bl	SendCommand
 728              	.LVL39:
 153:Core/Src/liquidcrystal_i2c.c **** }
 729              		.loc 1 153 1 is_stmt 0 view .LVU128
 730 0014 08BD     		pop	{r3, pc}
 731              	.L55:
 732 0016 00BF     		.align	2
 733              	.L54:
 734 0018 00000000 		.word	dpControl
 735              		.cfi_endproc
 736              	.LFE74:
 738              		.section	.text.HD44780_ScrollDisplayLeft,"ax",%progbits
 739              		.align	1
 740              		.global	HD44780_ScrollDisplayLeft
 741              		.syntax unified
 742              		.thumb
 743              		.thumb_func
 745              	HD44780_ScrollDisplayLeft:
 746              	.LFB75:
 156:Core/Src/liquidcrystal_i2c.c **** {
 747              		.loc 1 156 1 is_stmt 1 view -0
 748              		.cfi_startproc
 749              		@ args = 0, pretend = 0, frame = 0
 750              		@ frame_needed = 0, uses_anonymous_args = 0
 751 0000 08B5     		push	{r3, lr}
 752              	.LCFI21:
 753              		.cfi_def_cfa_offset 8
 754              		.cfi_offset 3, -8
 755              		.cfi_offset 14, -4
 157:Core/Src/liquidcrystal_i2c.c ****   SendCommand(LCD_CURSORSHIFT | LCD_DISPLAYMOVE | LCD_MOVELEFT);
 756              		.loc 1 157 3 view .LVU130
 757 0002 1820     		movs	r0, #24
 758 0004 FFF7FEFF 		bl	SendCommand
 759              	.LVL40:
 158:Core/Src/liquidcrystal_i2c.c **** }
 760              		.loc 1 158 1 is_stmt 0 view .LVU131
 761 0008 08BD     		pop	{r3, pc}
 762              		.cfi_endproc
 763              	.LFE75:
 765              		.section	.text.HD44780_ScrollDisplayRight,"ax",%progbits
 766              		.align	1
 767              		.global	HD44780_ScrollDisplayRight
 768              		.syntax unified
 769              		.thumb
 770              		.thumb_func
 772              	HD44780_ScrollDisplayRight:
 773              	.LFB76:
 161:Core/Src/liquidcrystal_i2c.c **** {
 774              		.loc 1 161 1 is_stmt 1 view -0
 775              		.cfi_startproc
 776              		@ args = 0, pretend = 0, frame = 0
 777              		@ frame_needed = 0, uses_anonymous_args = 0
 778 0000 08B5     		push	{r3, lr}
 779              	.LCFI22:
 780              		.cfi_def_cfa_offset 8
 781              		.cfi_offset 3, -8
 782              		.cfi_offset 14, -4
ARM GAS  C:\Users\TeTe\AppData\Local\Temp\ccx2v98J.s 			page 21


 162:Core/Src/liquidcrystal_i2c.c ****   SendCommand(LCD_CURSORSHIFT | LCD_DISPLAYMOVE | LCD_MOVERIGHT);
 783              		.loc 1 162 3 view .LVU133
 784 0002 1C20     		movs	r0, #28
 785 0004 FFF7FEFF 		bl	SendCommand
 786              	.LVL41:
 163:Core/Src/liquidcrystal_i2c.c **** }
 787              		.loc 1 163 1 is_stmt 0 view .LVU134
 788 0008 08BD     		pop	{r3, pc}
 789              		.cfi_endproc
 790              	.LFE76:
 792              		.section	.text.HD44780_LeftToRight,"ax",%progbits
 793              		.align	1
 794              		.global	HD44780_LeftToRight
 795              		.syntax unified
 796              		.thumb
 797              		.thumb_func
 799              	HD44780_LeftToRight:
 800              	.LFB77:
 166:Core/Src/liquidcrystal_i2c.c **** {
 801              		.loc 1 166 1 is_stmt 1 view -0
 802              		.cfi_startproc
 803              		@ args = 0, pretend = 0, frame = 0
 804              		@ frame_needed = 0, uses_anonymous_args = 0
 805 0000 08B5     		push	{r3, lr}
 806              	.LCFI23:
 807              		.cfi_def_cfa_offset 8
 808              		.cfi_offset 3, -8
 809              		.cfi_offset 14, -4
 167:Core/Src/liquidcrystal_i2c.c ****   dpMode |= LCD_ENTRYLEFT;
 810              		.loc 1 167 3 view .LVU136
 167:Core/Src/liquidcrystal_i2c.c ****   dpMode |= LCD_ENTRYLEFT;
 811              		.loc 1 167 10 is_stmt 0 view .LVU137
 812 0002 054B     		ldr	r3, .L62
 813 0004 1878     		ldrb	r0, [r3]	@ zero_extendqisi2
 814 0006 40F00202 		orr	r2, r0, #2
 815 000a 1A70     		strb	r2, [r3]
 168:Core/Src/liquidcrystal_i2c.c ****   SendCommand(LCD_ENTRYMODESET | dpMode);
 816              		.loc 1 168 3 is_stmt 1 view .LVU138
 817 000c 40F00600 		orr	r0, r0, #6
 818 0010 FFF7FEFF 		bl	SendCommand
 819              	.LVL42:
 169:Core/Src/liquidcrystal_i2c.c **** }
 820              		.loc 1 169 1 is_stmt 0 view .LVU139
 821 0014 08BD     		pop	{r3, pc}
 822              	.L63:
 823 0016 00BF     		.align	2
 824              	.L62:
 825 0018 00000000 		.word	dpMode
 826              		.cfi_endproc
 827              	.LFE77:
 829              		.section	.text.HD44780_RightToLeft,"ax",%progbits
 830              		.align	1
 831              		.global	HD44780_RightToLeft
 832              		.syntax unified
 833              		.thumb
 834              		.thumb_func
 836              	HD44780_RightToLeft:
ARM GAS  C:\Users\TeTe\AppData\Local\Temp\ccx2v98J.s 			page 22


 837              	.LFB78:
 172:Core/Src/liquidcrystal_i2c.c **** {
 838              		.loc 1 172 1 is_stmt 1 view -0
 839              		.cfi_startproc
 840              		@ args = 0, pretend = 0, frame = 0
 841              		@ frame_needed = 0, uses_anonymous_args = 0
 842 0000 08B5     		push	{r3, lr}
 843              	.LCFI24:
 844              		.cfi_def_cfa_offset 8
 845              		.cfi_offset 3, -8
 846              		.cfi_offset 14, -4
 173:Core/Src/liquidcrystal_i2c.c ****   dpMode &= ~LCD_ENTRYLEFT;
 847              		.loc 1 173 3 view .LVU141
 173:Core/Src/liquidcrystal_i2c.c ****   dpMode &= ~LCD_ENTRYLEFT;
 848              		.loc 1 173 10 is_stmt 0 view .LVU142
 849 0002 054B     		ldr	r3, .L66
 850 0004 1878     		ldrb	r0, [r3]	@ zero_extendqisi2
 851 0006 00F0FD00 		and	r0, r0, #253
 852 000a 1870     		strb	r0, [r3]
 174:Core/Src/liquidcrystal_i2c.c ****   SendCommand(LCD_ENTRYMODESET | dpMode);
 853              		.loc 1 174 3 is_stmt 1 view .LVU143
 854 000c 40F00400 		orr	r0, r0, #4
 855 0010 FFF7FEFF 		bl	SendCommand
 856              	.LVL43:
 175:Core/Src/liquidcrystal_i2c.c **** }
 857              		.loc 1 175 1 is_stmt 0 view .LVU144
 858 0014 08BD     		pop	{r3, pc}
 859              	.L67:
 860 0016 00BF     		.align	2
 861              	.L66:
 862 0018 00000000 		.word	dpMode
 863              		.cfi_endproc
 864              	.LFE78:
 866              		.section	.text.HD44780_AutoScroll,"ax",%progbits
 867              		.align	1
 868              		.global	HD44780_AutoScroll
 869              		.syntax unified
 870              		.thumb
 871              		.thumb_func
 873              	HD44780_AutoScroll:
 874              	.LFB79:
 178:Core/Src/liquidcrystal_i2c.c **** {
 875              		.loc 1 178 1 is_stmt 1 view -0
 876              		.cfi_startproc
 877              		@ args = 0, pretend = 0, frame = 0
 878              		@ frame_needed = 0, uses_anonymous_args = 0
 879 0000 08B5     		push	{r3, lr}
 880              	.LCFI25:
 881              		.cfi_def_cfa_offset 8
 882              		.cfi_offset 3, -8
 883              		.cfi_offset 14, -4
 179:Core/Src/liquidcrystal_i2c.c ****   dpMode |= LCD_ENTRYSHIFTINCREMENT;
 884              		.loc 1 179 3 view .LVU146
 179:Core/Src/liquidcrystal_i2c.c ****   dpMode |= LCD_ENTRYSHIFTINCREMENT;
 885              		.loc 1 179 10 is_stmt 0 view .LVU147
 886 0002 054B     		ldr	r3, .L70
 887 0004 1878     		ldrb	r0, [r3]	@ zero_extendqisi2
ARM GAS  C:\Users\TeTe\AppData\Local\Temp\ccx2v98J.s 			page 23


 888 0006 40F00102 		orr	r2, r0, #1
 889 000a 1A70     		strb	r2, [r3]
 180:Core/Src/liquidcrystal_i2c.c ****   SendCommand(LCD_ENTRYMODESET | dpMode);
 890              		.loc 1 180 3 is_stmt 1 view .LVU148
 891 000c 40F00500 		orr	r0, r0, #5
 892 0010 FFF7FEFF 		bl	SendCommand
 893              	.LVL44:
 181:Core/Src/liquidcrystal_i2c.c **** }
 894              		.loc 1 181 1 is_stmt 0 view .LVU149
 895 0014 08BD     		pop	{r3, pc}
 896              	.L71:
 897 0016 00BF     		.align	2
 898              	.L70:
 899 0018 00000000 		.word	dpMode
 900              		.cfi_endproc
 901              	.LFE79:
 903              		.section	.text.HD44780_NoAutoScroll,"ax",%progbits
 904              		.align	1
 905              		.global	HD44780_NoAutoScroll
 906              		.syntax unified
 907              		.thumb
 908              		.thumb_func
 910              	HD44780_NoAutoScroll:
 911              	.LFB80:
 184:Core/Src/liquidcrystal_i2c.c **** {
 912              		.loc 1 184 1 is_stmt 1 view -0
 913              		.cfi_startproc
 914              		@ args = 0, pretend = 0, frame = 0
 915              		@ frame_needed = 0, uses_anonymous_args = 0
 916 0000 08B5     		push	{r3, lr}
 917              	.LCFI26:
 918              		.cfi_def_cfa_offset 8
 919              		.cfi_offset 3, -8
 920              		.cfi_offset 14, -4
 185:Core/Src/liquidcrystal_i2c.c ****   dpMode &= ~LCD_ENTRYSHIFTINCREMENT;
 921              		.loc 1 185 3 view .LVU151
 185:Core/Src/liquidcrystal_i2c.c ****   dpMode &= ~LCD_ENTRYSHIFTINCREMENT;
 922              		.loc 1 185 10 is_stmt 0 view .LVU152
 923 0002 054B     		ldr	r3, .L74
 924 0004 1878     		ldrb	r0, [r3]	@ zero_extendqisi2
 925 0006 00F0FE00 		and	r0, r0, #254
 926 000a 1870     		strb	r0, [r3]
 186:Core/Src/liquidcrystal_i2c.c ****   SendCommand(LCD_ENTRYMODESET | dpMode);
 927              		.loc 1 186 3 is_stmt 1 view .LVU153
 928 000c 40F00400 		orr	r0, r0, #4
 929 0010 FFF7FEFF 		bl	SendCommand
 930              	.LVL45:
 187:Core/Src/liquidcrystal_i2c.c **** }
 931              		.loc 1 187 1 is_stmt 0 view .LVU154
 932 0014 08BD     		pop	{r3, pc}
 933              	.L75:
 934 0016 00BF     		.align	2
 935              	.L74:
 936 0018 00000000 		.word	dpMode
 937              		.cfi_endproc
 938              	.LFE80:
 940              		.section	.text.HD44780_CreateSpecialChar,"ax",%progbits
ARM GAS  C:\Users\TeTe\AppData\Local\Temp\ccx2v98J.s 			page 24


 941              		.align	1
 942              		.global	HD44780_CreateSpecialChar
 943              		.syntax unified
 944              		.thumb
 945              		.thumb_func
 947              	HD44780_CreateSpecialChar:
 948              	.LVL46:
 949              	.LFB81:
 190:Core/Src/liquidcrystal_i2c.c **** {
 950              		.loc 1 190 1 is_stmt 1 view -0
 951              		.cfi_startproc
 952              		@ args = 0, pretend = 0, frame = 0
 953              		@ frame_needed = 0, uses_anonymous_args = 0
 190:Core/Src/liquidcrystal_i2c.c **** {
 954              		.loc 1 190 1 is_stmt 0 view .LVU156
 955 0000 38B5     		push	{r3, r4, r5, lr}
 956              	.LCFI27:
 957              		.cfi_def_cfa_offset 16
 958              		.cfi_offset 3, -16
 959              		.cfi_offset 4, -12
 960              		.cfi_offset 5, -8
 961              		.cfi_offset 14, -4
 962 0002 0D46     		mov	r5, r1
 191:Core/Src/liquidcrystal_i2c.c ****   location &= 0x7;
 963              		.loc 1 191 3 is_stmt 1 view .LVU157
 964              	.LVL47:
 192:Core/Src/liquidcrystal_i2c.c ****   SendCommand(LCD_SETCGRAMADDR | (location << 3));
 965              		.loc 1 192 3 view .LVU158
 192:Core/Src/liquidcrystal_i2c.c ****   SendCommand(LCD_SETCGRAMADDR | (location << 3));
 966              		.loc 1 192 32 is_stmt 0 view .LVU159
 967 0004 C000     		lsls	r0, r0, #3
 968              	.LVL48:
 192:Core/Src/liquidcrystal_i2c.c ****   SendCommand(LCD_SETCGRAMADDR | (location << 3));
 969              		.loc 1 192 32 view .LVU160
 970 0006 00F03800 		and	r0, r0, #56
 192:Core/Src/liquidcrystal_i2c.c ****   SendCommand(LCD_SETCGRAMADDR | (location << 3));
 971              		.loc 1 192 3 view .LVU161
 972 000a 40F04000 		orr	r0, r0, #64
 973 000e FFF7FEFF 		bl	SendCommand
 974              	.LVL49:
 193:Core/Src/liquidcrystal_i2c.c ****   for (int i=0; i<8; i++)
 975              		.loc 1 193 3 is_stmt 1 view .LVU162
 976              	.LBB2:
 193:Core/Src/liquidcrystal_i2c.c ****   for (int i=0; i<8; i++)
 977              		.loc 1 193 8 view .LVU163
 193:Core/Src/liquidcrystal_i2c.c ****   for (int i=0; i<8; i++)
 978              		.loc 1 193 12 is_stmt 0 view .LVU164
 979 0012 0024     		movs	r4, #0
 193:Core/Src/liquidcrystal_i2c.c ****   for (int i=0; i<8; i++)
 980              		.loc 1 193 3 view .LVU165
 981 0014 03E0     		b	.L77
 982              	.LVL50:
 983              	.L78:
 195:Core/Src/liquidcrystal_i2c.c ****     SendChar(charmap[i]);
 984              		.loc 1 195 5 is_stmt 1 view .LVU166
 985 0016 285D     		ldrb	r0, [r5, r4]	@ zero_extendqisi2
 986 0018 FFF7FEFF 		bl	SendChar
ARM GAS  C:\Users\TeTe\AppData\Local\Temp\ccx2v98J.s 			page 25


 987              	.LVL51:
 193:Core/Src/liquidcrystal_i2c.c ****   for (int i=0; i<8; i++)
 988              		.loc 1 193 23 discriminator 3 view .LVU167
 989 001c 0134     		adds	r4, r4, #1
 990              	.LVL52:
 991              	.L77:
 193:Core/Src/liquidcrystal_i2c.c ****   for (int i=0; i<8; i++)
 992              		.loc 1 193 18 discriminator 1 view .LVU168
 993 001e 072C     		cmp	r4, #7
 994 0020 F9DD     		ble	.L78
 995              	.LBE2:
 197:Core/Src/liquidcrystal_i2c.c **** }
 996              		.loc 1 197 1 is_stmt 0 view .LVU169
 997 0022 38BD     		pop	{r3, r4, r5, pc}
 197:Core/Src/liquidcrystal_i2c.c **** }
 998              		.loc 1 197 1 view .LVU170
 999              		.cfi_endproc
 1000              	.LFE81:
 1002              		.section	.text.HD44780_Init,"ax",%progbits
 1003              		.align	1
 1004              		.global	HD44780_Init
 1005              		.syntax unified
 1006              		.thumb
 1007              		.thumb_func
 1009              	HD44780_Init:
 1010              	.LVL53:
 1011              	.LFB65:
  43:Core/Src/liquidcrystal_i2c.c **** {
 1012              		.loc 1 43 1 is_stmt 1 view -0
 1013              		.cfi_startproc
 1014              		@ args = 0, pretend = 0, frame = 0
 1015              		@ frame_needed = 0, uses_anonymous_args = 0
  43:Core/Src/liquidcrystal_i2c.c **** {
 1016              		.loc 1 43 1 is_stmt 0 view .LVU172
 1017 0000 08B5     		push	{r3, lr}
 1018              	.LCFI28:
 1019              		.cfi_def_cfa_offset 8
 1020              		.cfi_offset 3, -8
 1021              		.cfi_offset 14, -4
  44:Core/Src/liquidcrystal_i2c.c ****   dpRows = rows;
 1022              		.loc 1 44 3 is_stmt 1 view .LVU173
  44:Core/Src/liquidcrystal_i2c.c ****   dpRows = rows;
 1023              		.loc 1 44 10 is_stmt 0 view .LVU174
 1024 0002 2D4B     		ldr	r3, .L84
 1025 0004 1870     		strb	r0, [r3]
  46:Core/Src/liquidcrystal_i2c.c ****   dpBacklight = LCD_BACKLIGHT;
 1026              		.loc 1 46 3 is_stmt 1 view .LVU175
  46:Core/Src/liquidcrystal_i2c.c ****   dpBacklight = LCD_BACKLIGHT;
 1027              		.loc 1 46 15 is_stmt 0 view .LVU176
 1028 0006 2D4B     		ldr	r3, .L84+4
 1029 0008 0822     		movs	r2, #8
 1030 000a 1A70     		strb	r2, [r3]
  48:Core/Src/liquidcrystal_i2c.c ****   dpFunction = LCD_4BITMODE | LCD_1LINE | LCD_5x8DOTS;
 1031              		.loc 1 48 3 is_stmt 1 view .LVU177
  48:Core/Src/liquidcrystal_i2c.c ****   dpFunction = LCD_4BITMODE | LCD_1LINE | LCD_5x8DOTS;
 1032              		.loc 1 48 14 is_stmt 0 view .LVU178
 1033 000c 2C4B     		ldr	r3, .L84+8
ARM GAS  C:\Users\TeTe\AppData\Local\Temp\ccx2v98J.s 			page 26


 1034 000e 0022     		movs	r2, #0
 1035 0010 1A70     		strb	r2, [r3]
  50:Core/Src/liquidcrystal_i2c.c ****   if (dpRows > 1)
 1036              		.loc 1 50 3 is_stmt 1 view .LVU179
  50:Core/Src/liquidcrystal_i2c.c ****   if (dpRows > 1)
 1037              		.loc 1 50 6 is_stmt 0 view .LVU180
 1038 0012 0128     		cmp	r0, #1
 1039 0014 4BD9     		bls	.L81
  52:Core/Src/liquidcrystal_i2c.c ****     dpFunction |= LCD_2LINE;
 1040              		.loc 1 52 5 is_stmt 1 view .LVU181
  52:Core/Src/liquidcrystal_i2c.c ****     dpFunction |= LCD_2LINE;
 1041              		.loc 1 52 16 is_stmt 0 view .LVU182
 1042 0016 0822     		movs	r2, #8
 1043 0018 1A70     		strb	r2, [r3]
 1044              	.L82:
  60:Core/Src/liquidcrystal_i2c.c ****   DelayInit();
 1045              		.loc 1 60 3 is_stmt 1 view .LVU183
 1046 001a FFF7FEFF 		bl	DelayInit
 1047              	.LVL54:
  61:Core/Src/liquidcrystal_i2c.c ****   HAL_Delay(50);
 1048              		.loc 1 61 3 view .LVU184
 1049 001e 3220     		movs	r0, #50
 1050 0020 FFF7FEFF 		bl	HAL_Delay
 1051              	.LVL55:
  63:Core/Src/liquidcrystal_i2c.c ****   ExpanderWrite(dpBacklight);
 1052              		.loc 1 63 3 view .LVU185
 1053 0024 254B     		ldr	r3, .L84+4
 1054 0026 1878     		ldrb	r0, [r3]	@ zero_extendqisi2
 1055 0028 FFF7FEFF 		bl	ExpanderWrite
 1056              	.LVL56:
  64:Core/Src/liquidcrystal_i2c.c ****   HAL_Delay(1000);
 1057              		.loc 1 64 3 view .LVU186
 1058 002c 4FF47A70 		mov	r0, #1000
 1059 0030 FFF7FEFF 		bl	HAL_Delay
 1060              	.LVL57:
  67:Core/Src/liquidcrystal_i2c.c ****   Write4Bits(0x03 << 4);
 1061              		.loc 1 67 3 view .LVU187
 1062 0034 3020     		movs	r0, #48
 1063 0036 FFF7FEFF 		bl	Write4Bits
 1064              	.LVL58:
  68:Core/Src/liquidcrystal_i2c.c ****   DelayUS(4500);
 1065              		.loc 1 68 3 view .LVU188
 1066 003a 41F29410 		movw	r0, #4500
 1067 003e FFF7FEFF 		bl	DelayUS
 1068              	.LVL59:
  70:Core/Src/liquidcrystal_i2c.c ****   Write4Bits(0x03 << 4);
 1069              		.loc 1 70 3 view .LVU189
 1070 0042 3020     		movs	r0, #48
 1071 0044 FFF7FEFF 		bl	Write4Bits
 1072              	.LVL60:
  71:Core/Src/liquidcrystal_i2c.c ****   DelayUS(4500);
 1073              		.loc 1 71 3 view .LVU190
 1074 0048 41F29410 		movw	r0, #4500
 1075 004c FFF7FEFF 		bl	DelayUS
 1076              	.LVL61:
  73:Core/Src/liquidcrystal_i2c.c ****   Write4Bits(0x03 << 4);
 1077              		.loc 1 73 3 view .LVU191
ARM GAS  C:\Users\TeTe\AppData\Local\Temp\ccx2v98J.s 			page 27


 1078 0050 3020     		movs	r0, #48
 1079 0052 FFF7FEFF 		bl	Write4Bits
 1080              	.LVL62:
  74:Core/Src/liquidcrystal_i2c.c ****   DelayUS(4500);
 1081              		.loc 1 74 3 view .LVU192
 1082 0056 41F29410 		movw	r0, #4500
 1083 005a FFF7FEFF 		bl	DelayUS
 1084              	.LVL63:
  76:Core/Src/liquidcrystal_i2c.c ****   Write4Bits(0x02 << 4);
 1085              		.loc 1 76 3 view .LVU193
 1086 005e 2020     		movs	r0, #32
 1087 0060 FFF7FEFF 		bl	Write4Bits
 1088              	.LVL64:
  77:Core/Src/liquidcrystal_i2c.c ****   DelayUS(100);
 1089              		.loc 1 77 3 view .LVU194
 1090 0064 6420     		movs	r0, #100
 1091 0066 FFF7FEFF 		bl	DelayUS
 1092              	.LVL65:
  80:Core/Src/liquidcrystal_i2c.c ****   SendCommand(LCD_FUNCTIONSET | dpFunction);
 1093              		.loc 1 80 3 view .LVU195
 1094 006a 154B     		ldr	r3, .L84+8
 1095 006c 1878     		ldrb	r0, [r3]	@ zero_extendqisi2
 1096 006e 40F02000 		orr	r0, r0, #32
 1097 0072 FFF7FEFF 		bl	SendCommand
 1098              	.LVL66:
  82:Core/Src/liquidcrystal_i2c.c ****   dpControl = LCD_DISPLAYON | LCD_CURSOROFF | LCD_BLINKOFF;
 1099              		.loc 1 82 3 view .LVU196
  82:Core/Src/liquidcrystal_i2c.c ****   dpControl = LCD_DISPLAYON | LCD_CURSOROFF | LCD_BLINKOFF;
 1100              		.loc 1 82 13 is_stmt 0 view .LVU197
 1101 0076 134B     		ldr	r3, .L84+12
 1102 0078 0422     		movs	r2, #4
 1103 007a 1A70     		strb	r2, [r3]
  83:Core/Src/liquidcrystal_i2c.c ****   HD44780_Display();
 1104              		.loc 1 83 3 is_stmt 1 view .LVU198
 1105 007c FFF7FEFF 		bl	HD44780_Display
 1106              	.LVL67:
  84:Core/Src/liquidcrystal_i2c.c ****   HD44780_Clear();
 1107              		.loc 1 84 3 view .LVU199
 1108 0080 FFF7FEFF 		bl	HD44780_Clear
 1109              	.LVL68:
  87:Core/Src/liquidcrystal_i2c.c ****   dpMode = LCD_ENTRYLEFT | LCD_ENTRYSHIFTDECREMENT;
 1110              		.loc 1 87 3 view .LVU200
  87:Core/Src/liquidcrystal_i2c.c ****   dpMode = LCD_ENTRYLEFT | LCD_ENTRYSHIFTDECREMENT;
 1111              		.loc 1 87 10 is_stmt 0 view .LVU201
 1112 0084 104B     		ldr	r3, .L84+16
 1113 0086 0222     		movs	r2, #2
 1114 0088 1A70     		strb	r2, [r3]
  88:Core/Src/liquidcrystal_i2c.c ****   SendCommand(LCD_ENTRYMODESET | dpMode);
 1115              		.loc 1 88 3 is_stmt 1 view .LVU202
 1116 008a 0620     		movs	r0, #6
 1117 008c FFF7FEFF 		bl	SendCommand
 1118              	.LVL69:
  89:Core/Src/liquidcrystal_i2c.c ****   DelayUS(4500);
 1119              		.loc 1 89 3 view .LVU203
 1120 0090 41F29410 		movw	r0, #4500
 1121 0094 FFF7FEFF 		bl	DelayUS
 1122              	.LVL70:
ARM GAS  C:\Users\TeTe\AppData\Local\Temp\ccx2v98J.s 			page 28


  91:Core/Src/liquidcrystal_i2c.c ****   HD44780_CreateSpecialChar(0, special1);
 1123              		.loc 1 91 3 view .LVU204
 1124 0098 0C49     		ldr	r1, .L84+20
 1125 009a 0020     		movs	r0, #0
 1126 009c FFF7FEFF 		bl	HD44780_CreateSpecialChar
 1127              	.LVL71:
  92:Core/Src/liquidcrystal_i2c.c ****   HD44780_CreateSpecialChar(1, special2);
 1128              		.loc 1 92 3 view .LVU205
 1129 00a0 0B49     		ldr	r1, .L84+24
 1130 00a2 0120     		movs	r0, #1
 1131 00a4 FFF7FEFF 		bl	HD44780_CreateSpecialChar
 1132              	.LVL72:
  94:Core/Src/liquidcrystal_i2c.c ****   HD44780_Home();
 1133              		.loc 1 94 3 view .LVU206
 1134 00a8 FFF7FEFF 		bl	HD44780_Home
 1135              	.LVL73:
  95:Core/Src/liquidcrystal_i2c.c **** }
 1136              		.loc 1 95 1 is_stmt 0 view .LVU207
 1137 00ac 08BD     		pop	{r3, pc}
 1138              	.LVL74:
 1139              	.L81:
  56:Core/Src/liquidcrystal_i2c.c ****     dpFunction |= LCD_5x10DOTS;
 1140              		.loc 1 56 5 is_stmt 1 view .LVU208
  56:Core/Src/liquidcrystal_i2c.c ****     dpFunction |= LCD_5x10DOTS;
 1141              		.loc 1 56 16 is_stmt 0 view .LVU209
 1142 00ae 044B     		ldr	r3, .L84+8
 1143 00b0 0422     		movs	r2, #4
 1144 00b2 1A70     		strb	r2, [r3]
 1145 00b4 B1E7     		b	.L82
 1146              	.L85:
 1147 00b6 00BF     		.align	2
 1148              	.L84:
 1149 00b8 00000000 		.word	dpRows
 1150 00bc 00000000 		.word	dpBacklight
 1151 00c0 00000000 		.word	dpFunction
 1152 00c4 00000000 		.word	dpControl
 1153 00c8 00000000 		.word	dpMode
 1154 00cc 00000000 		.word	special1
 1155 00d0 00000000 		.word	special2
 1156              		.cfi_endproc
 1157              	.LFE65:
 1159              		.section	.text.HD44780_PrintSpecialChar,"ax",%progbits
 1160              		.align	1
 1161              		.global	HD44780_PrintSpecialChar
 1162              		.syntax unified
 1163              		.thumb
 1164              		.thumb_func
 1166              	HD44780_PrintSpecialChar:
 1167              	.LVL75:
 1168              	.LFB82:
 200:Core/Src/liquidcrystal_i2c.c **** {
 1169              		.loc 1 200 1 is_stmt 1 view -0
 1170              		.cfi_startproc
 1171              		@ args = 0, pretend = 0, frame = 0
 1172              		@ frame_needed = 0, uses_anonymous_args = 0
 200:Core/Src/liquidcrystal_i2c.c **** {
 1173              		.loc 1 200 1 is_stmt 0 view .LVU211
ARM GAS  C:\Users\TeTe\AppData\Local\Temp\ccx2v98J.s 			page 29


 1174 0000 08B5     		push	{r3, lr}
 1175              	.LCFI29:
 1176              		.cfi_def_cfa_offset 8
 1177              		.cfi_offset 3, -8
 1178              		.cfi_offset 14, -4
 201:Core/Src/liquidcrystal_i2c.c ****   SendChar(index);
 1179              		.loc 1 201 3 is_stmt 1 view .LVU212
 1180 0002 FFF7FEFF 		bl	SendChar
 1181              	.LVL76:
 202:Core/Src/liquidcrystal_i2c.c **** }
 1182              		.loc 1 202 1 is_stmt 0 view .LVU213
 1183 0006 08BD     		pop	{r3, pc}
 1184              		.cfi_endproc
 1185              	.LFE82:
 1187              		.section	.text.HD44780_LoadCustomCharacter,"ax",%progbits
 1188              		.align	1
 1189              		.global	HD44780_LoadCustomCharacter
 1190              		.syntax unified
 1191              		.thumb
 1192              		.thumb_func
 1194              	HD44780_LoadCustomCharacter:
 1195              	.LVL77:
 1196              	.LFB83:
 205:Core/Src/liquidcrystal_i2c.c **** {
 1197              		.loc 1 205 1 is_stmt 1 view -0
 1198              		.cfi_startproc
 1199              		@ args = 0, pretend = 0, frame = 0
 1200              		@ frame_needed = 0, uses_anonymous_args = 0
 205:Core/Src/liquidcrystal_i2c.c **** {
 1201              		.loc 1 205 1 is_stmt 0 view .LVU215
 1202 0000 08B5     		push	{r3, lr}
 1203              	.LCFI30:
 1204              		.cfi_def_cfa_offset 8
 1205              		.cfi_offset 3, -8
 1206              		.cfi_offset 14, -4
 206:Core/Src/liquidcrystal_i2c.c ****   HD44780_CreateSpecialChar(char_num, rows);
 1207              		.loc 1 206 3 is_stmt 1 view .LVU216
 1208 0002 FFF7FEFF 		bl	HD44780_CreateSpecialChar
 1209              	.LVL78:
 207:Core/Src/liquidcrystal_i2c.c **** }
 1210              		.loc 1 207 1 is_stmt 0 view .LVU217
 1211 0006 08BD     		pop	{r3, pc}
 1212              		.cfi_endproc
 1213              	.LFE83:
 1215              		.section	.text.HD44780_PrintStr,"ax",%progbits
 1216              		.align	1
 1217              		.global	HD44780_PrintStr
 1218              		.syntax unified
 1219              		.thumb
 1220              		.thumb_func
 1222              	HD44780_PrintStr:
 1223              	.LVL79:
 1224              	.LFB84:
 210:Core/Src/liquidcrystal_i2c.c **** {
 1225              		.loc 1 210 1 is_stmt 1 view -0
 1226              		.cfi_startproc
 1227              		@ args = 0, pretend = 0, frame = 0
ARM GAS  C:\Users\TeTe\AppData\Local\Temp\ccx2v98J.s 			page 30


 1228              		@ frame_needed = 0, uses_anonymous_args = 0
 210:Core/Src/liquidcrystal_i2c.c **** {
 1229              		.loc 1 210 1 is_stmt 0 view .LVU219
 1230 0000 10B5     		push	{r4, lr}
 1231              	.LCFI31:
 1232              		.cfi_def_cfa_offset 8
 1233              		.cfi_offset 4, -8
 1234              		.cfi_offset 14, -4
 1235 0002 0446     		mov	r4, r0
 211:Core/Src/liquidcrystal_i2c.c ****   while(*c) SendChar(*c++);
 1236              		.loc 1 211 3 is_stmt 1 view .LVU220
 211:Core/Src/liquidcrystal_i2c.c ****   while(*c) SendChar(*c++);
 1237              		.loc 1 211 8 is_stmt 0 view .LVU221
 1238 0004 02E0     		b	.L91
 1239              	.LVL80:
 1240              	.L92:
 211:Core/Src/liquidcrystal_i2c.c ****   while(*c) SendChar(*c++);
 1241              		.loc 1 211 13 is_stmt 1 discriminator 2 view .LVU222
 211:Core/Src/liquidcrystal_i2c.c ****   while(*c) SendChar(*c++);
 1242              		.loc 1 211 24 is_stmt 0 discriminator 2 view .LVU223
 1243 0006 0134     		adds	r4, r4, #1
 1244              	.LVL81:
 211:Core/Src/liquidcrystal_i2c.c ****   while(*c) SendChar(*c++);
 1245              		.loc 1 211 13 discriminator 2 view .LVU224
 1246 0008 FFF7FEFF 		bl	SendChar
 1247              	.LVL82:
 1248              	.L91:
 211:Core/Src/liquidcrystal_i2c.c ****   while(*c) SendChar(*c++);
 1249              		.loc 1 211 9 is_stmt 1 discriminator 1 view .LVU225
 1250 000c 2078     		ldrb	r0, [r4]	@ zero_extendqisi2
 1251 000e 0028     		cmp	r0, #0
 1252 0010 F9D1     		bne	.L92
 212:Core/Src/liquidcrystal_i2c.c **** }
 1253              		.loc 1 212 1 is_stmt 0 view .LVU226
 1254 0012 10BD     		pop	{r4, pc}
 212:Core/Src/liquidcrystal_i2c.c **** }
 1255              		.loc 1 212 1 view .LVU227
 1256              		.cfi_endproc
 1257              	.LFE84:
 1259              		.section	.text.HD44780_NoBacklight,"ax",%progbits
 1260              		.align	1
 1261              		.global	HD44780_NoBacklight
 1262              		.syntax unified
 1263              		.thumb
 1264              		.thumb_func
 1266              	HD44780_NoBacklight:
 1267              	.LFB86:
 221:Core/Src/liquidcrystal_i2c.c **** {
 1268              		.loc 1 221 1 is_stmt 1 view -0
 1269              		.cfi_startproc
 1270              		@ args = 0, pretend = 0, frame = 0
 1271              		@ frame_needed = 0, uses_anonymous_args = 0
 1272 0000 08B5     		push	{r3, lr}
 1273              	.LCFI32:
 1274              		.cfi_def_cfa_offset 8
 1275              		.cfi_offset 3, -8
 1276              		.cfi_offset 14, -4
ARM GAS  C:\Users\TeTe\AppData\Local\Temp\ccx2v98J.s 			page 31


 222:Core/Src/liquidcrystal_i2c.c ****   dpBacklight=LCD_NOBACKLIGHT;
 1277              		.loc 1 222 3 view .LVU229
 222:Core/Src/liquidcrystal_i2c.c ****   dpBacklight=LCD_NOBACKLIGHT;
 1278              		.loc 1 222 14 is_stmt 0 view .LVU230
 1279 0002 0020     		movs	r0, #0
 1280 0004 024B     		ldr	r3, .L96
 1281 0006 1870     		strb	r0, [r3]
 223:Core/Src/liquidcrystal_i2c.c ****   ExpanderWrite(0);
 1282              		.loc 1 223 3 is_stmt 1 view .LVU231
 1283 0008 FFF7FEFF 		bl	ExpanderWrite
 1284              	.LVL83:
 224:Core/Src/liquidcrystal_i2c.c **** }
 1285              		.loc 1 224 1 is_stmt 0 view .LVU232
 1286 000c 08BD     		pop	{r3, pc}
 1287              	.L97:
 1288 000e 00BF     		.align	2
 1289              	.L96:
 1290 0010 00000000 		.word	dpBacklight
 1291              		.cfi_endproc
 1292              	.LFE86:
 1294              		.section	.text.HD44780_Backlight,"ax",%progbits
 1295              		.align	1
 1296              		.global	HD44780_Backlight
 1297              		.syntax unified
 1298              		.thumb
 1299              		.thumb_func
 1301              	HD44780_Backlight:
 1302              	.LFB87:
 227:Core/Src/liquidcrystal_i2c.c **** {
 1303              		.loc 1 227 1 is_stmt 1 view -0
 1304              		.cfi_startproc
 1305              		@ args = 0, pretend = 0, frame = 0
 1306              		@ frame_needed = 0, uses_anonymous_args = 0
 1307 0000 08B5     		push	{r3, lr}
 1308              	.LCFI33:
 1309              		.cfi_def_cfa_offset 8
 1310              		.cfi_offset 3, -8
 1311              		.cfi_offset 14, -4
 228:Core/Src/liquidcrystal_i2c.c ****   dpBacklight=LCD_BACKLIGHT;
 1312              		.loc 1 228 3 view .LVU234
 228:Core/Src/liquidcrystal_i2c.c ****   dpBacklight=LCD_BACKLIGHT;
 1313              		.loc 1 228 14 is_stmt 0 view .LVU235
 1314 0002 034B     		ldr	r3, .L100
 1315 0004 0822     		movs	r2, #8
 1316 0006 1A70     		strb	r2, [r3]
 229:Core/Src/liquidcrystal_i2c.c ****   ExpanderWrite(0);
 1317              		.loc 1 229 3 is_stmt 1 view .LVU236
 1318 0008 0020     		movs	r0, #0
 1319 000a FFF7FEFF 		bl	ExpanderWrite
 1320              	.LVL84:
 230:Core/Src/liquidcrystal_i2c.c **** }
 1321              		.loc 1 230 1 is_stmt 0 view .LVU237
 1322 000e 08BD     		pop	{r3, pc}
 1323              	.L101:
 1324              		.align	2
 1325              	.L100:
 1326 0010 00000000 		.word	dpBacklight
ARM GAS  C:\Users\TeTe\AppData\Local\Temp\ccx2v98J.s 			page 32


 1327              		.cfi_endproc
 1328              	.LFE87:
 1330              		.section	.text.HD44780_SetBacklight,"ax",%progbits
 1331              		.align	1
 1332              		.global	HD44780_SetBacklight
 1333              		.syntax unified
 1334              		.thumb
 1335              		.thumb_func
 1337              	HD44780_SetBacklight:
 1338              	.LVL85:
 1339              	.LFB85:
 215:Core/Src/liquidcrystal_i2c.c **** {
 1340              		.loc 1 215 1 is_stmt 1 view -0
 1341              		.cfi_startproc
 1342              		@ args = 0, pretend = 0, frame = 0
 1343              		@ frame_needed = 0, uses_anonymous_args = 0
 215:Core/Src/liquidcrystal_i2c.c **** {
 1344              		.loc 1 215 1 is_stmt 0 view .LVU239
 1345 0000 08B5     		push	{r3, lr}
 1346              	.LCFI34:
 1347              		.cfi_def_cfa_offset 8
 1348              		.cfi_offset 3, -8
 1349              		.cfi_offset 14, -4
 216:Core/Src/liquidcrystal_i2c.c ****   if(new_val) HD44780_Backlight();
 1350              		.loc 1 216 3 is_stmt 1 view .LVU240
 216:Core/Src/liquidcrystal_i2c.c ****   if(new_val) HD44780_Backlight();
 1351              		.loc 1 216 5 is_stmt 0 view .LVU241
 1352 0002 10B1     		cbz	r0, .L103
 216:Core/Src/liquidcrystal_i2c.c ****   if(new_val) HD44780_Backlight();
 1353              		.loc 1 216 15 is_stmt 1 discriminator 1 view .LVU242
 1354 0004 FFF7FEFF 		bl	HD44780_Backlight
 1355              	.LVL86:
 1356              	.L102:
 218:Core/Src/liquidcrystal_i2c.c **** }
 1357              		.loc 1 218 1 is_stmt 0 view .LVU243
 1358 0008 08BD     		pop	{r3, pc}
 1359              	.LVL87:
 1360              	.L103:
 217:Core/Src/liquidcrystal_i2c.c ****   else HD44780_NoBacklight();
 1361              		.loc 1 217 8 is_stmt 1 view .LVU244
 1362 000a FFF7FEFF 		bl	HD44780_NoBacklight
 1363              	.LVL88:
 218:Core/Src/liquidcrystal_i2c.c **** }
 1364              		.loc 1 218 1 is_stmt 0 view .LVU245
 1365 000e FBE7     		b	.L102
 1366              		.cfi_endproc
 1367              	.LFE85:
 1369              		.global	special2
 1370              		.section	.data.special2,"aw"
 1371              		.align	2
 1374              	special2:
 1375 0000 18180609 		.ascii	"\030\030\006\011\010\011\006\000"
 1375      08090600 
 1376              		.global	special1
 1377              		.section	.data.special1,"aw"
 1378              		.align	2
 1381              	special1:
ARM GAS  C:\Users\TeTe\AppData\Local\Temp\ccx2v98J.s 			page 33


 1382 0000 00191B06 		.ascii	"\000\031\033\006\014\033\023\000"
 1382      0C1B1300 
 1383              		.global	dpBacklight
 1384              		.section	.bss.dpBacklight,"aw",%nobits
 1387              	dpBacklight:
 1388 0000 00       		.space	1
 1389              		.global	dpRows
 1390              		.section	.bss.dpRows,"aw",%nobits
 1393              	dpRows:
 1394 0000 00       		.space	1
 1395              		.global	dpMode
 1396              		.section	.bss.dpMode,"aw",%nobits
 1399              	dpMode:
 1400 0000 00       		.space	1
 1401              		.global	dpControl
 1402              		.section	.bss.dpControl,"aw",%nobits
 1405              	dpControl:
 1406 0000 00       		.space	1
 1407              		.global	dpFunction
 1408              		.section	.bss.dpFunction,"aw",%nobits
 1411              	dpFunction:
 1412 0000 00       		.space	1
 1413              		.section	.rodata
 1414              		.align	2
 1415              		.set	.LANCHOR0,. + 0
 1416              	.LC0:
 1417 0000 00000000 		.word	0
 1418 0004 40000000 		.word	64
 1419 0008 14000000 		.word	20
 1420 000c 54000000 		.word	84
 1421              		.text
 1422              	.Letext0:
 1423              		.file 2 "C:\\ST\\STM32CubeCLT_1.18.0\\GNU-tools-for-STM32\\bin/../lib/gcc/arm-none-eabi/13.3.1/../
 1424              		.file 3 "C:\\ST\\STM32CubeCLT_1.18.0\\GNU-tools-for-STM32\\bin/../lib/gcc/arm-none-eabi/13.3.1/../
 1425              		.file 4 "Drivers/CMSIS/Include/core_cm3.h"
 1426              		.file 5 "Drivers/CMSIS/Device/ST/STM32F1xx/Include/stm32f103xb.h"
 1427              		.file 6 "Drivers/STM32F1xx_HAL_Driver/Inc/stm32f1xx_hal_def.h"
 1428              		.file 7 "Drivers/STM32F1xx_HAL_Driver/Inc/stm32f1xx_hal_dma.h"
 1429              		.file 8 "Drivers/STM32F1xx_HAL_Driver/Inc/stm32f1xx_hal_i2c.h"
 1430              		.file 9 "Drivers/CMSIS/Device/ST/STM32F1xx/Include/system_stm32f1xx.h"
 1431              		.file 10 "Drivers/STM32F1xx_HAL_Driver/Inc/stm32f1xx_hal.h"
ARM GAS  C:\Users\TeTe\AppData\Local\Temp\ccx2v98J.s 			page 34

