ARM GAS  C:\Users\TeTe\AppData\Local\Temp\ccVfdXVo.s 			page 1


   1              		.cpu cortex-m3
   2              		.arch armv7-m
   3              		.fpu softvfp
   4              		.eabi_attribute 20, 1
   5              		.eabi_attribute 21, 1
   6              		.eabi_attribute 23, 3
   7              		.eabi_attribute 24, 1
   8              		.eabi_attribute 25, 1
   9              		.eabi_attribute 26, 1
  10              		.eabi_attribute 30, 1
  11              		.eabi_attribute 34, 1
  12              		.eabi_attribute 18, 4
  13              		.file	"tim.c"
  14              		.text
  15              	.Ltext0:
  16              		.cfi_sections	.debug_frame
  17              		.file 1 "Core/Src/tim.c"
  18              		.section	.text.HAL_TIM_Base_MspInit,"ax",%progbits
  19              		.align	1
  20              		.global	HAL_TIM_Base_MspInit
  21              		.syntax unified
  22              		.thumb
  23              		.thumb_func
  25              	HAL_TIM_Base_MspInit:
  26              	.LVL0:
  27              	.LFB66:
   1:Core/Src/tim.c **** /* USER CODE BEGIN Header */
   2:Core/Src/tim.c **** /**
   3:Core/Src/tim.c ****   ******************************************************************************
   4:Core/Src/tim.c ****   * @file    tim.c
   5:Core/Src/tim.c ****   * @brief   This file provides code for the configuration
   6:Core/Src/tim.c ****   *          of the TIM instances.
   7:Core/Src/tim.c ****   ******************************************************************************
   8:Core/Src/tim.c ****   * @attention
   9:Core/Src/tim.c ****   *
  10:Core/Src/tim.c ****   * Copyright (c) 2025 STMicroelectronics.
  11:Core/Src/tim.c ****   * All rights reserved.
  12:Core/Src/tim.c ****   *
  13:Core/Src/tim.c ****   * This software is licensed under terms that can be found in the LICENSE file
  14:Core/Src/tim.c ****   * in the root directory of this software component.
  15:Core/Src/tim.c ****   * If no LICENSE file comes with this software, it is provided AS-IS.
  16:Core/Src/tim.c ****   *
  17:Core/Src/tim.c ****   ******************************************************************************
  18:Core/Src/tim.c ****   */
  19:Core/Src/tim.c **** /* USER CODE END Header */
  20:Core/Src/tim.c **** /* Includes ------------------------------------------------------------------*/
  21:Core/Src/tim.c **** #include "tim.h"
  22:Core/Src/tim.c **** 
  23:Core/Src/tim.c **** /* USER CODE BEGIN 0 */
  24:Core/Src/tim.c **** 
  25:Core/Src/tim.c **** /* USER CODE END 0 */
  26:Core/Src/tim.c **** 
  27:Core/Src/tim.c **** TIM_HandleTypeDef htim2;
  28:Core/Src/tim.c **** 
  29:Core/Src/tim.c **** /* TIM2 init function */
  30:Core/Src/tim.c **** void MX_TIM2_Init(void)
  31:Core/Src/tim.c **** {
ARM GAS  C:\Users\TeTe\AppData\Local\Temp\ccVfdXVo.s 			page 2


  32:Core/Src/tim.c **** 
  33:Core/Src/tim.c ****   /* USER CODE BEGIN TIM2_Init 0 */
  34:Core/Src/tim.c **** 
  35:Core/Src/tim.c ****   /* USER CODE END TIM2_Init 0 */
  36:Core/Src/tim.c **** 
  37:Core/Src/tim.c ****   TIM_ClockConfigTypeDef sClockSourceConfig = {0};
  38:Core/Src/tim.c ****   TIM_MasterConfigTypeDef sMasterConfig = {0};
  39:Core/Src/tim.c ****   TIM_OC_InitTypeDef sConfigOC = {0};
  40:Core/Src/tim.c **** 
  41:Core/Src/tim.c ****   /* USER CODE BEGIN TIM2_Init 1 */
  42:Core/Src/tim.c **** 
  43:Core/Src/tim.c ****   /* USER CODE END TIM2_Init 1 */
  44:Core/Src/tim.c ****   htim2.Instance = TIM2;
  45:Core/Src/tim.c ****   htim2.Init.Prescaler = 7199;
  46:Core/Src/tim.c ****   htim2.Init.CounterMode = TIM_COUNTERMODE_UP;
  47:Core/Src/tim.c ****   htim2.Init.Period = 1;
  48:Core/Src/tim.c ****   htim2.Init.ClockDivision = TIM_CLOCKDIVISION_DIV1;
  49:Core/Src/tim.c ****   htim2.Init.AutoReloadPreload = TIM_AUTORELOAD_PRELOAD_DISABLE;
  50:Core/Src/tim.c ****   if (HAL_TIM_Base_Init(&htim2) != HAL_OK)
  51:Core/Src/tim.c ****   {
  52:Core/Src/tim.c ****     Error_Handler();
  53:Core/Src/tim.c ****   }
  54:Core/Src/tim.c ****   sClockSourceConfig.ClockSource = TIM_CLOCKSOURCE_INTERNAL;
  55:Core/Src/tim.c ****   if (HAL_TIM_ConfigClockSource(&htim2, &sClockSourceConfig) != HAL_OK)
  56:Core/Src/tim.c ****   {
  57:Core/Src/tim.c ****     Error_Handler();
  58:Core/Src/tim.c ****   }
  59:Core/Src/tim.c ****   if (HAL_TIM_OC_Init(&htim2) != HAL_OK)
  60:Core/Src/tim.c ****   {
  61:Core/Src/tim.c ****     Error_Handler();
  62:Core/Src/tim.c ****   }
  63:Core/Src/tim.c ****   sMasterConfig.MasterOutputTrigger = TIM_TRGO_RESET;
  64:Core/Src/tim.c ****   sMasterConfig.MasterSlaveMode = TIM_MASTERSLAVEMODE_DISABLE;
  65:Core/Src/tim.c ****   if (HAL_TIMEx_MasterConfigSynchronization(&htim2, &sMasterConfig) != HAL_OK)
  66:Core/Src/tim.c ****   {
  67:Core/Src/tim.c ****     Error_Handler();
  68:Core/Src/tim.c ****   }
  69:Core/Src/tim.c ****   sConfigOC.OCMode = TIM_OCMODE_TIMING;
  70:Core/Src/tim.c ****   sConfigOC.Pulse = 0;
  71:Core/Src/tim.c ****   sConfigOC.OCPolarity = TIM_OCPOLARITY_HIGH;
  72:Core/Src/tim.c ****   sConfigOC.OCFastMode = TIM_OCFAST_DISABLE;
  73:Core/Src/tim.c ****   if (HAL_TIM_OC_ConfigChannel(&htim2, &sConfigOC, TIM_CHANNEL_1) != HAL_OK)
  74:Core/Src/tim.c ****   {
  75:Core/Src/tim.c ****     Error_Handler();
  76:Core/Src/tim.c ****   }
  77:Core/Src/tim.c ****   /* USER CODE BEGIN TIM2_Init 2 */
  78:Core/Src/tim.c **** 
  79:Core/Src/tim.c ****   /* USER CODE END TIM2_Init 2 */
  80:Core/Src/tim.c ****   HAL_TIM_MspPostInit(&htim2);
  81:Core/Src/tim.c **** 
  82:Core/Src/tim.c **** }
  83:Core/Src/tim.c **** 
  84:Core/Src/tim.c **** void HAL_TIM_Base_MspInit(TIM_HandleTypeDef* tim_baseHandle)
  85:Core/Src/tim.c **** {
  28              		.loc 1 85 1 view -0
  29              		.cfi_startproc
  30              		@ args = 0, pretend = 0, frame = 8
ARM GAS  C:\Users\TeTe\AppData\Local\Temp\ccVfdXVo.s 			page 3


  31              		@ frame_needed = 0, uses_anonymous_args = 0
  86:Core/Src/tim.c **** 
  87:Core/Src/tim.c ****   if(tim_baseHandle->Instance==TIM2)
  32              		.loc 1 87 3 view .LVU1
  33              		.loc 1 87 20 is_stmt 0 view .LVU2
  34 0000 0368     		ldr	r3, [r0]
  35              		.loc 1 87 5 view .LVU3
  36 0002 B3F1804F 		cmp	r3, #1073741824
  37 0006 00D0     		beq	.L7
  38 0008 7047     		bx	lr
  39              	.L7:
  85:Core/Src/tim.c **** 
  40              		.loc 1 85 1 view .LVU4
  41 000a 00B5     		push	{lr}
  42              	.LCFI0:
  43              		.cfi_def_cfa_offset 4
  44              		.cfi_offset 14, -4
  45 000c 83B0     		sub	sp, sp, #12
  46              	.LCFI1:
  47              		.cfi_def_cfa_offset 16
  88:Core/Src/tim.c ****   {
  89:Core/Src/tim.c ****   /* USER CODE BEGIN TIM2_MspInit 0 */
  90:Core/Src/tim.c **** 
  91:Core/Src/tim.c ****   /* USER CODE END TIM2_MspInit 0 */
  92:Core/Src/tim.c ****     /* TIM2 clock enable */
  93:Core/Src/tim.c ****     __HAL_RCC_TIM2_CLK_ENABLE();
  48              		.loc 1 93 5 is_stmt 1 view .LVU5
  49              	.LBB2:
  50              		.loc 1 93 5 view .LVU6
  51              		.loc 1 93 5 view .LVU7
  52 000e 03F50433 		add	r3, r3, #135168
  53 0012 DA69     		ldr	r2, [r3, #28]
  54 0014 42F00102 		orr	r2, r2, #1
  55 0018 DA61     		str	r2, [r3, #28]
  56              		.loc 1 93 5 view .LVU8
  57 001a DB69     		ldr	r3, [r3, #28]
  58 001c 03F00103 		and	r3, r3, #1
  59 0020 0193     		str	r3, [sp, #4]
  60              		.loc 1 93 5 view .LVU9
  61 0022 019B     		ldr	r3, [sp, #4]
  62              	.LBE2:
  63              		.loc 1 93 5 view .LVU10
  94:Core/Src/tim.c **** 
  95:Core/Src/tim.c ****     /* TIM2 interrupt Init */
  96:Core/Src/tim.c ****     HAL_NVIC_SetPriority(TIM2_IRQn, 15, 0);
  64              		.loc 1 96 5 view .LVU11
  65 0024 0022     		movs	r2, #0
  66 0026 0F21     		movs	r1, #15
  67 0028 1C20     		movs	r0, #28
  68              	.LVL1:
  69              		.loc 1 96 5 is_stmt 0 view .LVU12
  70 002a FFF7FEFF 		bl	HAL_NVIC_SetPriority
  71              	.LVL2:
  97:Core/Src/tim.c ****     HAL_NVIC_EnableIRQ(TIM2_IRQn);
  72              		.loc 1 97 5 is_stmt 1 view .LVU13
  73 002e 1C20     		movs	r0, #28
  74 0030 FFF7FEFF 		bl	HAL_NVIC_EnableIRQ
ARM GAS  C:\Users\TeTe\AppData\Local\Temp\ccVfdXVo.s 			page 4


  75              	.LVL3:
  98:Core/Src/tim.c ****   /* USER CODE BEGIN TIM2_MspInit 1 */
  99:Core/Src/tim.c **** 
 100:Core/Src/tim.c ****   /* USER CODE END TIM2_MspInit 1 */
 101:Core/Src/tim.c ****   }
 102:Core/Src/tim.c **** }
  76              		.loc 1 102 1 is_stmt 0 view .LVU14
  77 0034 03B0     		add	sp, sp, #12
  78              	.LCFI2:
  79              		.cfi_def_cfa_offset 4
  80              		@ sp needed
  81 0036 5DF804FB 		ldr	pc, [sp], #4
  82              		.cfi_endproc
  83              	.LFE66:
  85              		.section	.text.HAL_TIM_MspPostInit,"ax",%progbits
  86              		.align	1
  87              		.global	HAL_TIM_MspPostInit
  88              		.syntax unified
  89              		.thumb
  90              		.thumb_func
  92              	HAL_TIM_MspPostInit:
  93              	.LVL4:
  94              	.LFB67:
 103:Core/Src/tim.c **** void HAL_TIM_MspPostInit(TIM_HandleTypeDef* timHandle)
 104:Core/Src/tim.c **** {
  95              		.loc 1 104 1 is_stmt 1 view -0
  96              		.cfi_startproc
  97              		@ args = 0, pretend = 0, frame = 24
  98              		@ frame_needed = 0, uses_anonymous_args = 0
  99              		.loc 1 104 1 is_stmt 0 view .LVU16
 100 0000 00B5     		push	{lr}
 101              	.LCFI3:
 102              		.cfi_def_cfa_offset 4
 103              		.cfi_offset 14, -4
 104 0002 87B0     		sub	sp, sp, #28
 105              	.LCFI4:
 106              		.cfi_def_cfa_offset 32
 105:Core/Src/tim.c **** 
 106:Core/Src/tim.c ****   GPIO_InitTypeDef GPIO_InitStruct = {0};
 107              		.loc 1 106 3 is_stmt 1 view .LVU17
 108              		.loc 1 106 20 is_stmt 0 view .LVU18
 109 0004 0023     		movs	r3, #0
 110 0006 0293     		str	r3, [sp, #8]
 111 0008 0393     		str	r3, [sp, #12]
 112 000a 0493     		str	r3, [sp, #16]
 113 000c 0593     		str	r3, [sp, #20]
 107:Core/Src/tim.c ****   if(timHandle->Instance==TIM2)
 114              		.loc 1 107 3 is_stmt 1 view .LVU19
 115              		.loc 1 107 15 is_stmt 0 view .LVU20
 116 000e 0368     		ldr	r3, [r0]
 117              		.loc 1 107 5 view .LVU21
 118 0010 B3F1804F 		cmp	r3, #1073741824
 119 0014 02D0     		beq	.L11
 120              	.LVL5:
 121              	.L8:
 108:Core/Src/tim.c ****   {
 109:Core/Src/tim.c ****   /* USER CODE BEGIN TIM2_MspPostInit 0 */
ARM GAS  C:\Users\TeTe\AppData\Local\Temp\ccVfdXVo.s 			page 5


 110:Core/Src/tim.c **** 
 111:Core/Src/tim.c ****   /* USER CODE END TIM2_MspPostInit 0 */
 112:Core/Src/tim.c **** 
 113:Core/Src/tim.c ****     __HAL_RCC_GPIOA_CLK_ENABLE();
 114:Core/Src/tim.c ****     /**TIM2 GPIO Configuration
 115:Core/Src/tim.c ****     PA0-WKUP     ------> TIM2_CH1
 116:Core/Src/tim.c ****     */
 117:Core/Src/tim.c ****     GPIO_InitStruct.Pin = GPIO_PIN_0;
 118:Core/Src/tim.c ****     GPIO_InitStruct.Mode = GPIO_MODE_AF_PP;
 119:Core/Src/tim.c ****     GPIO_InitStruct.Speed = GPIO_SPEED_FREQ_LOW;
 120:Core/Src/tim.c ****     HAL_GPIO_Init(GPIOA, &GPIO_InitStruct);
 121:Core/Src/tim.c **** 
 122:Core/Src/tim.c ****   /* USER CODE BEGIN TIM2_MspPostInit 1 */
 123:Core/Src/tim.c **** 
 124:Core/Src/tim.c ****   /* USER CODE END TIM2_MspPostInit 1 */
 125:Core/Src/tim.c ****   }
 126:Core/Src/tim.c **** 
 127:Core/Src/tim.c **** }
 122              		.loc 1 127 1 view .LVU22
 123 0016 07B0     		add	sp, sp, #28
 124              	.LCFI5:
 125              		.cfi_remember_state
 126              		.cfi_def_cfa_offset 4
 127              		@ sp needed
 128 0018 5DF804FB 		ldr	pc, [sp], #4
 129              	.LVL6:
 130              	.L11:
 131              	.LCFI6:
 132              		.cfi_restore_state
 113:Core/Src/tim.c ****     /**TIM2 GPIO Configuration
 133              		.loc 1 113 5 is_stmt 1 view .LVU23
 134              	.LBB3:
 113:Core/Src/tim.c ****     /**TIM2 GPIO Configuration
 135              		.loc 1 113 5 view .LVU24
 113:Core/Src/tim.c ****     /**TIM2 GPIO Configuration
 136              		.loc 1 113 5 view .LVU25
 137 001c 03F50433 		add	r3, r3, #135168
 138 0020 9A69     		ldr	r2, [r3, #24]
 139 0022 42F00402 		orr	r2, r2, #4
 140 0026 9A61     		str	r2, [r3, #24]
 113:Core/Src/tim.c ****     /**TIM2 GPIO Configuration
 141              		.loc 1 113 5 view .LVU26
 142 0028 9B69     		ldr	r3, [r3, #24]
 143 002a 03F00403 		and	r3, r3, #4
 144 002e 0193     		str	r3, [sp, #4]
 113:Core/Src/tim.c ****     /**TIM2 GPIO Configuration
 145              		.loc 1 113 5 view .LVU27
 146 0030 019B     		ldr	r3, [sp, #4]
 147              	.LBE3:
 113:Core/Src/tim.c ****     /**TIM2 GPIO Configuration
 148              		.loc 1 113 5 view .LVU28
 117:Core/Src/tim.c ****     GPIO_InitStruct.Mode = GPIO_MODE_AF_PP;
 149              		.loc 1 117 5 view .LVU29
 117:Core/Src/tim.c ****     GPIO_InitStruct.Mode = GPIO_MODE_AF_PP;
 150              		.loc 1 117 25 is_stmt 0 view .LVU30
 151 0032 0123     		movs	r3, #1
 152 0034 0293     		str	r3, [sp, #8]
ARM GAS  C:\Users\TeTe\AppData\Local\Temp\ccVfdXVo.s 			page 6


 118:Core/Src/tim.c ****     GPIO_InitStruct.Speed = GPIO_SPEED_FREQ_LOW;
 153              		.loc 1 118 5 is_stmt 1 view .LVU31
 118:Core/Src/tim.c ****     GPIO_InitStruct.Speed = GPIO_SPEED_FREQ_LOW;
 154              		.loc 1 118 26 is_stmt 0 view .LVU32
 155 0036 0223     		movs	r3, #2
 156 0038 0393     		str	r3, [sp, #12]
 119:Core/Src/tim.c ****     HAL_GPIO_Init(GPIOA, &GPIO_InitStruct);
 157              		.loc 1 119 5 is_stmt 1 view .LVU33
 119:Core/Src/tim.c ****     HAL_GPIO_Init(GPIOA, &GPIO_InitStruct);
 158              		.loc 1 119 27 is_stmt 0 view .LVU34
 159 003a 0593     		str	r3, [sp, #20]
 120:Core/Src/tim.c **** 
 160              		.loc 1 120 5 is_stmt 1 view .LVU35
 161 003c 02A9     		add	r1, sp, #8
 162 003e 0248     		ldr	r0, .L12
 163              	.LVL7:
 120:Core/Src/tim.c **** 
 164              		.loc 1 120 5 is_stmt 0 view .LVU36
 165 0040 FFF7FEFF 		bl	HAL_GPIO_Init
 166              	.LVL8:
 167              		.loc 1 127 1 view .LVU37
 168 0044 E7E7     		b	.L8
 169              	.L13:
 170 0046 00BF     		.align	2
 171              	.L12:
 172 0048 00080140 		.word	1073809408
 173              		.cfi_endproc
 174              	.LFE67:
 176              		.section	.text.MX_TIM2_Init,"ax",%progbits
 177              		.align	1
 178              		.global	MX_TIM2_Init
 179              		.syntax unified
 180              		.thumb
 181              		.thumb_func
 183              	MX_TIM2_Init:
 184              	.LFB65:
  31:Core/Src/tim.c **** 
 185              		.loc 1 31 1 is_stmt 1 view -0
 186              		.cfi_startproc
 187              		@ args = 0, pretend = 0, frame = 56
 188              		@ frame_needed = 0, uses_anonymous_args = 0
 189 0000 00B5     		push	{lr}
 190              	.LCFI7:
 191              		.cfi_def_cfa_offset 4
 192              		.cfi_offset 14, -4
 193 0002 8FB0     		sub	sp, sp, #60
 194              	.LCFI8:
 195              		.cfi_def_cfa_offset 64
  37:Core/Src/tim.c ****   TIM_MasterConfigTypeDef sMasterConfig = {0};
 196              		.loc 1 37 3 view .LVU39
  37:Core/Src/tim.c ****   TIM_MasterConfigTypeDef sMasterConfig = {0};
 197              		.loc 1 37 26 is_stmt 0 view .LVU40
 198 0004 0023     		movs	r3, #0
 199 0006 0A93     		str	r3, [sp, #40]
 200 0008 0B93     		str	r3, [sp, #44]
 201 000a 0C93     		str	r3, [sp, #48]
 202 000c 0D93     		str	r3, [sp, #52]
ARM GAS  C:\Users\TeTe\AppData\Local\Temp\ccVfdXVo.s 			page 7


  38:Core/Src/tim.c ****   TIM_OC_InitTypeDef sConfigOC = {0};
 203              		.loc 1 38 3 is_stmt 1 view .LVU41
  38:Core/Src/tim.c ****   TIM_OC_InitTypeDef sConfigOC = {0};
 204              		.loc 1 38 27 is_stmt 0 view .LVU42
 205 000e 0893     		str	r3, [sp, #32]
 206 0010 0993     		str	r3, [sp, #36]
  39:Core/Src/tim.c **** 
 207              		.loc 1 39 3 is_stmt 1 view .LVU43
  39:Core/Src/tim.c **** 
 208              		.loc 1 39 22 is_stmt 0 view .LVU44
 209 0012 0193     		str	r3, [sp, #4]
 210 0014 0293     		str	r3, [sp, #8]
 211 0016 0393     		str	r3, [sp, #12]
 212 0018 0493     		str	r3, [sp, #16]
 213 001a 0593     		str	r3, [sp, #20]
 214 001c 0693     		str	r3, [sp, #24]
 215 001e 0793     		str	r3, [sp, #28]
  44:Core/Src/tim.c ****   htim2.Init.Prescaler = 7199;
 216              		.loc 1 44 3 is_stmt 1 view .LVU45
  44:Core/Src/tim.c ****   htim2.Init.Prescaler = 7199;
 217              		.loc 1 44 18 is_stmt 0 view .LVU46
 218 0020 2048     		ldr	r0, .L26
 219 0022 4FF08042 		mov	r2, #1073741824
 220 0026 0260     		str	r2, [r0]
  45:Core/Src/tim.c ****   htim2.Init.CounterMode = TIM_COUNTERMODE_UP;
 221              		.loc 1 45 3 is_stmt 1 view .LVU47
  45:Core/Src/tim.c ****   htim2.Init.CounterMode = TIM_COUNTERMODE_UP;
 222              		.loc 1 45 24 is_stmt 0 view .LVU48
 223 0028 41F61F42 		movw	r2, #7199
 224 002c 4260     		str	r2, [r0, #4]
  46:Core/Src/tim.c ****   htim2.Init.Period = 1;
 225              		.loc 1 46 3 is_stmt 1 view .LVU49
  46:Core/Src/tim.c ****   htim2.Init.Period = 1;
 226              		.loc 1 46 26 is_stmt 0 view .LVU50
 227 002e 8360     		str	r3, [r0, #8]
  47:Core/Src/tim.c ****   htim2.Init.ClockDivision = TIM_CLOCKDIVISION_DIV1;
 228              		.loc 1 47 3 is_stmt 1 view .LVU51
  47:Core/Src/tim.c ****   htim2.Init.ClockDivision = TIM_CLOCKDIVISION_DIV1;
 229              		.loc 1 47 21 is_stmt 0 view .LVU52
 230 0030 0122     		movs	r2, #1
 231 0032 C260     		str	r2, [r0, #12]
  48:Core/Src/tim.c ****   htim2.Init.AutoReloadPreload = TIM_AUTORELOAD_PRELOAD_DISABLE;
 232              		.loc 1 48 3 is_stmt 1 view .LVU53
  48:Core/Src/tim.c ****   htim2.Init.AutoReloadPreload = TIM_AUTORELOAD_PRELOAD_DISABLE;
 233              		.loc 1 48 28 is_stmt 0 view .LVU54
 234 0034 0361     		str	r3, [r0, #16]
  49:Core/Src/tim.c ****   if (HAL_TIM_Base_Init(&htim2) != HAL_OK)
 235              		.loc 1 49 3 is_stmt 1 view .LVU55
  49:Core/Src/tim.c ****   if (HAL_TIM_Base_Init(&htim2) != HAL_OK)
 236              		.loc 1 49 32 is_stmt 0 view .LVU56
 237 0036 8361     		str	r3, [r0, #24]
  50:Core/Src/tim.c ****   {
 238              		.loc 1 50 3 is_stmt 1 view .LVU57
  50:Core/Src/tim.c ****   {
 239              		.loc 1 50 7 is_stmt 0 view .LVU58
 240 0038 FFF7FEFF 		bl	HAL_TIM_Base_Init
 241              	.LVL9:
ARM GAS  C:\Users\TeTe\AppData\Local\Temp\ccVfdXVo.s 			page 8


  50:Core/Src/tim.c ****   {
 242              		.loc 1 50 6 discriminator 1 view .LVU59
 243 003c 18BB     		cbnz	r0, .L21
 244              	.L15:
  54:Core/Src/tim.c ****   if (HAL_TIM_ConfigClockSource(&htim2, &sClockSourceConfig) != HAL_OK)
 245              		.loc 1 54 3 is_stmt 1 view .LVU60
  54:Core/Src/tim.c ****   if (HAL_TIM_ConfigClockSource(&htim2, &sClockSourceConfig) != HAL_OK)
 246              		.loc 1 54 34 is_stmt 0 view .LVU61
 247 003e 4FF48053 		mov	r3, #4096
 248 0042 0A93     		str	r3, [sp, #40]
  55:Core/Src/tim.c ****   {
 249              		.loc 1 55 3 is_stmt 1 view .LVU62
  55:Core/Src/tim.c ****   {
 250              		.loc 1 55 7 is_stmt 0 view .LVU63
 251 0044 0AA9     		add	r1, sp, #40
 252 0046 1748     		ldr	r0, .L26
 253 0048 FFF7FEFF 		bl	HAL_TIM_ConfigClockSource
 254              	.LVL10:
  55:Core/Src/tim.c ****   {
 255              		.loc 1 55 6 discriminator 1 view .LVU64
 256 004c F0B9     		cbnz	r0, .L22
 257              	.L16:
  59:Core/Src/tim.c ****   {
 258              		.loc 1 59 3 is_stmt 1 view .LVU65
  59:Core/Src/tim.c ****   {
 259              		.loc 1 59 7 is_stmt 0 view .LVU66
 260 004e 1548     		ldr	r0, .L26
 261 0050 FFF7FEFF 		bl	HAL_TIM_OC_Init
 262              	.LVL11:
  59:Core/Src/tim.c ****   {
 263              		.loc 1 59 6 discriminator 1 view .LVU67
 264 0054 E8B9     		cbnz	r0, .L23
 265              	.L17:
  63:Core/Src/tim.c ****   sMasterConfig.MasterSlaveMode = TIM_MASTERSLAVEMODE_DISABLE;
 266              		.loc 1 63 3 is_stmt 1 view .LVU68
  63:Core/Src/tim.c ****   sMasterConfig.MasterSlaveMode = TIM_MASTERSLAVEMODE_DISABLE;
 267              		.loc 1 63 37 is_stmt 0 view .LVU69
 268 0056 0023     		movs	r3, #0
 269 0058 0893     		str	r3, [sp, #32]
  64:Core/Src/tim.c ****   if (HAL_TIMEx_MasterConfigSynchronization(&htim2, &sMasterConfig) != HAL_OK)
 270              		.loc 1 64 3 is_stmt 1 view .LVU70
  64:Core/Src/tim.c ****   if (HAL_TIMEx_MasterConfigSynchronization(&htim2, &sMasterConfig) != HAL_OK)
 271              		.loc 1 64 33 is_stmt 0 view .LVU71
 272 005a 0993     		str	r3, [sp, #36]
  65:Core/Src/tim.c ****   {
 273              		.loc 1 65 3 is_stmt 1 view .LVU72
  65:Core/Src/tim.c ****   {
 274              		.loc 1 65 7 is_stmt 0 view .LVU73
 275 005c 08A9     		add	r1, sp, #32
 276 005e 1148     		ldr	r0, .L26
 277 0060 FFF7FEFF 		bl	HAL_TIMEx_MasterConfigSynchronization
 278              	.LVL12:
  65:Core/Src/tim.c ****   {
 279              		.loc 1 65 6 discriminator 1 view .LVU74
 280 0064 C0B9     		cbnz	r0, .L24
 281              	.L18:
  69:Core/Src/tim.c ****   sConfigOC.Pulse = 0;
ARM GAS  C:\Users\TeTe\AppData\Local\Temp\ccVfdXVo.s 			page 9


 282              		.loc 1 69 3 is_stmt 1 view .LVU75
  69:Core/Src/tim.c ****   sConfigOC.Pulse = 0;
 283              		.loc 1 69 20 is_stmt 0 view .LVU76
 284 0066 0022     		movs	r2, #0
 285 0068 0192     		str	r2, [sp, #4]
  70:Core/Src/tim.c ****   sConfigOC.OCPolarity = TIM_OCPOLARITY_HIGH;
 286              		.loc 1 70 3 is_stmt 1 view .LVU77
  70:Core/Src/tim.c ****   sConfigOC.OCPolarity = TIM_OCPOLARITY_HIGH;
 287              		.loc 1 70 19 is_stmt 0 view .LVU78
 288 006a 0292     		str	r2, [sp, #8]
  71:Core/Src/tim.c ****   sConfigOC.OCFastMode = TIM_OCFAST_DISABLE;
 289              		.loc 1 71 3 is_stmt 1 view .LVU79
  71:Core/Src/tim.c ****   sConfigOC.OCFastMode = TIM_OCFAST_DISABLE;
 290              		.loc 1 71 24 is_stmt 0 view .LVU80
 291 006c 0392     		str	r2, [sp, #12]
  72:Core/Src/tim.c ****   if (HAL_TIM_OC_ConfigChannel(&htim2, &sConfigOC, TIM_CHANNEL_1) != HAL_OK)
 292              		.loc 1 72 3 is_stmt 1 view .LVU81
  72:Core/Src/tim.c ****   if (HAL_TIM_OC_ConfigChannel(&htim2, &sConfigOC, TIM_CHANNEL_1) != HAL_OK)
 293              		.loc 1 72 24 is_stmt 0 view .LVU82
 294 006e 0592     		str	r2, [sp, #20]
  73:Core/Src/tim.c ****   {
 295              		.loc 1 73 3 is_stmt 1 view .LVU83
  73:Core/Src/tim.c ****   {
 296              		.loc 1 73 7 is_stmt 0 view .LVU84
 297 0070 01A9     		add	r1, sp, #4
 298 0072 0C48     		ldr	r0, .L26
 299 0074 FFF7FEFF 		bl	HAL_TIM_OC_ConfigChannel
 300              	.LVL13:
  73:Core/Src/tim.c ****   {
 301              		.loc 1 73 6 discriminator 1 view .LVU85
 302 0078 88B9     		cbnz	r0, .L25
 303              	.L19:
  80:Core/Src/tim.c **** 
 304              		.loc 1 80 3 is_stmt 1 view .LVU86
 305 007a 0A48     		ldr	r0, .L26
 306 007c FFF7FEFF 		bl	HAL_TIM_MspPostInit
 307              	.LVL14:
  82:Core/Src/tim.c **** 
 308              		.loc 1 82 1 is_stmt 0 view .LVU87
 309 0080 0FB0     		add	sp, sp, #60
 310              	.LCFI9:
 311              		.cfi_remember_state
 312              		.cfi_def_cfa_offset 4
 313              		@ sp needed
 314 0082 5DF804FB 		ldr	pc, [sp], #4
 315              	.L21:
 316              	.LCFI10:
 317              		.cfi_restore_state
  52:Core/Src/tim.c ****   }
 318              		.loc 1 52 5 is_stmt 1 view .LVU88
 319 0086 FFF7FEFF 		bl	Error_Handler
 320              	.LVL15:
 321 008a D8E7     		b	.L15
 322              	.L22:
  57:Core/Src/tim.c ****   }
 323              		.loc 1 57 5 view .LVU89
 324 008c FFF7FEFF 		bl	Error_Handler
ARM GAS  C:\Users\TeTe\AppData\Local\Temp\ccVfdXVo.s 			page 10


 325              	.LVL16:
 326 0090 DDE7     		b	.L16
 327              	.L23:
  61:Core/Src/tim.c ****   }
 328              		.loc 1 61 5 view .LVU90
 329 0092 FFF7FEFF 		bl	Error_Handler
 330              	.LVL17:
 331 0096 DEE7     		b	.L17
 332              	.L24:
  67:Core/Src/tim.c ****   }
 333              		.loc 1 67 5 view .LVU91
 334 0098 FFF7FEFF 		bl	Error_Handler
 335              	.LVL18:
 336 009c E3E7     		b	.L18
 337              	.L25:
  75:Core/Src/tim.c ****   }
 338              		.loc 1 75 5 view .LVU92
 339 009e FFF7FEFF 		bl	Error_Handler
 340              	.LVL19:
 341 00a2 EAE7     		b	.L19
 342              	.L27:
 343              		.align	2
 344              	.L26:
 345 00a4 00000000 		.word	htim2
 346              		.cfi_endproc
 347              	.LFE65:
 349              		.section	.text.HAL_TIM_Base_MspDeInit,"ax",%progbits
 350              		.align	1
 351              		.global	HAL_TIM_Base_MspDeInit
 352              		.syntax unified
 353              		.thumb
 354              		.thumb_func
 356              	HAL_TIM_Base_MspDeInit:
 357              	.LVL20:
 358              	.LFB68:
 128:Core/Src/tim.c **** 
 129:Core/Src/tim.c **** void HAL_TIM_Base_MspDeInit(TIM_HandleTypeDef* tim_baseHandle)
 130:Core/Src/tim.c **** {
 359              		.loc 1 130 1 view -0
 360              		.cfi_startproc
 361              		@ args = 0, pretend = 0, frame = 0
 362              		@ frame_needed = 0, uses_anonymous_args = 0
 363              		.loc 1 130 1 is_stmt 0 view .LVU94
 364 0000 08B5     		push	{r3, lr}
 365              	.LCFI11:
 366              		.cfi_def_cfa_offset 8
 367              		.cfi_offset 3, -8
 368              		.cfi_offset 14, -4
 131:Core/Src/tim.c **** 
 132:Core/Src/tim.c ****   if(tim_baseHandle->Instance==TIM2)
 369              		.loc 1 132 3 is_stmt 1 view .LVU95
 370              		.loc 1 132 20 is_stmt 0 view .LVU96
 371 0002 0368     		ldr	r3, [r0]
 372              		.loc 1 132 5 view .LVU97
 373 0004 B3F1804F 		cmp	r3, #1073741824
 374 0008 00D0     		beq	.L31
 375              	.LVL21:
ARM GAS  C:\Users\TeTe\AppData\Local\Temp\ccVfdXVo.s 			page 11


 376              	.L28:
 133:Core/Src/tim.c ****   {
 134:Core/Src/tim.c ****   /* USER CODE BEGIN TIM2_MspDeInit 0 */
 135:Core/Src/tim.c **** 
 136:Core/Src/tim.c ****   /* USER CODE END TIM2_MspDeInit 0 */
 137:Core/Src/tim.c ****     /* Peripheral clock disable */
 138:Core/Src/tim.c ****     __HAL_RCC_TIM2_CLK_DISABLE();
 139:Core/Src/tim.c **** 
 140:Core/Src/tim.c ****     /* TIM2 interrupt Deinit */
 141:Core/Src/tim.c ****     HAL_NVIC_DisableIRQ(TIM2_IRQn);
 142:Core/Src/tim.c ****   /* USER CODE BEGIN TIM2_MspDeInit 1 */
 143:Core/Src/tim.c **** 
 144:Core/Src/tim.c ****   /* USER CODE END TIM2_MspDeInit 1 */
 145:Core/Src/tim.c ****   }
 146:Core/Src/tim.c **** }
 377              		.loc 1 146 1 view .LVU98
 378 000a 08BD     		pop	{r3, pc}
 379              	.LVL22:
 380              	.L31:
 138:Core/Src/tim.c **** 
 381              		.loc 1 138 5 is_stmt 1 view .LVU99
 382 000c 044A     		ldr	r2, .L32
 383 000e D369     		ldr	r3, [r2, #28]
 384 0010 23F00103 		bic	r3, r3, #1
 385 0014 D361     		str	r3, [r2, #28]
 141:Core/Src/tim.c ****   /* USER CODE BEGIN TIM2_MspDeInit 1 */
 386              		.loc 1 141 5 view .LVU100
 387 0016 1C20     		movs	r0, #28
 388              	.LVL23:
 141:Core/Src/tim.c ****   /* USER CODE BEGIN TIM2_MspDeInit 1 */
 389              		.loc 1 141 5 is_stmt 0 view .LVU101
 390 0018 FFF7FEFF 		bl	HAL_NVIC_DisableIRQ
 391              	.LVL24:
 392              		.loc 1 146 1 view .LVU102
 393 001c F5E7     		b	.L28
 394              	.L33:
 395 001e 00BF     		.align	2
 396              	.L32:
 397 0020 00100240 		.word	1073876992
 398              		.cfi_endproc
 399              	.LFE68:
 401              		.global	htim2
 402              		.section	.bss.htim2,"aw",%nobits
 403              		.align	2
 406              	htim2:
 407 0000 00000000 		.space	72
 407      00000000 
 407      00000000 
 407      00000000 
 407      00000000 
 408              		.text
 409              	.Letext0:
 410              		.file 2 "Drivers/CMSIS/Device/ST/STM32F1xx/Include/stm32f103xb.h"
 411              		.file 3 "C:\\ST\\STM32CubeCLT_1.18.0\\GNU-tools-for-STM32\\bin/../lib/gcc/arm-none-eabi/13.3.1/../
 412              		.file 4 "C:\\ST\\STM32CubeCLT_1.18.0\\GNU-tools-for-STM32\\bin/../lib/gcc/arm-none-eabi/13.3.1/../
 413              		.file 5 "Drivers/STM32F1xx_HAL_Driver/Inc/stm32f1xx_hal_def.h"
 414              		.file 6 "Drivers/STM32F1xx_HAL_Driver/Inc/stm32f1xx_hal_gpio.h"
ARM GAS  C:\Users\TeTe\AppData\Local\Temp\ccVfdXVo.s 			page 12


 415              		.file 7 "Drivers/STM32F1xx_HAL_Driver/Inc/stm32f1xx_hal_dma.h"
 416              		.file 8 "Drivers/STM32F1xx_HAL_Driver/Inc/stm32f1xx_hal_tim.h"
 417              		.file 9 "Drivers/STM32F1xx_HAL_Driver/Inc/stm32f1xx_hal_cortex.h"
 418              		.file 10 "Drivers/STM32F1xx_HAL_Driver/Inc/stm32f1xx_hal_tim_ex.h"
 419              		.file 11 "Core/Inc/tim.h"
 420              		.file 12 "Core/Inc/main.h"
ARM GAS  C:\Users\TeTe\AppData\Local\Temp\ccVfdXVo.s 			page 13

